ccollections
defaultdict
p1
(c__builtin__
list
p2
tRp3
S'Pryor'
p4
(lp5
S'PERSON'
p6
asS'Vic Fazio'
p7
(lp8
S'PERSON'
p9
asS'Mortimer'
p10
(lp11
S'PERSON'
p12
asS'Sugar'
p13
(lp14
S'PRODUCT'
p15
aS'SUBSTANCE'
p16
aS'SUBSTANCE:FOOD'
p17
asS'Continental'
p18
(lp19
S'ORGANIZATION'
p20
aS'ORGANIZATION:CORPORATION'
p21
asS'woods'
p22
(lp23
S'SUBSTANCE'
p24
asS'Thema'
p25
(lp26
S'PRODUCT:VEHICLE'
p27
aS'PRODUCT'
p28
asS'undersecretary'
p29
(lp30
S'PERSON'
p31
asS'battleground'
p32
(lp33
S'EVENT'
p34
aS'EVENT:WAR'
p35
asS'painters'
p36
(lp37
S'PERSON'
p38
asS'financial adviser'
p39
(lp40
S'PERSON'
p41
asS'Grumman'
p42
(lp43
S'ORGANIZATION'
p44
aS'ORGANIZATION:CORPORATION'
p45
asS'British Diabetic Association'
p46
(lp47
S'ORGANIZATION'
p48
aS'ORGANIZATION:CORPORATION'
p49
asS'legislators'
p50
(lp51
S'ORGANIZATION'
p52
aS'PERSON'
p53
aS'ORGANIZATION:GOVERNMENT'
p54
asS'Turner Broadcasting'
p55
(lp56
S'ORGANIZATION'
p57
aS'ORGANIZATION:CORPORATION'
p58
asS'knife'
p59
(lp60
S'PRODUCT'
p61
aS'PRODUCT:WEAPON'
p62
asS'GE'
p63
(lp64
S'ORGANIZATION'
p65
aS'ORGANIZATION:CORPORATION'
p66
asS'Lorillard'
p67
(lp68
S'ORGANIZATION'
p69
aS'ORGANIZATION:CORPORATION'
p70
asS'GM'
p71
(lp72
S'ORGANIZATION'
p73
aS'ORGANIZATION:CORPORATION'
p74
asS'Thomas'
p75
(lp76
S'PERSON'
p77
asS'Chesley'
p78
(lp79
S'WORK_OF_ART'
p80
asS'American Brands Inc.'
p81
(lp82
S'ORGANIZATION'
p83
aS'ORGANIZATION:CORPORATION'
p84
asS'solid'
p85
(lp86
S'SUBSTANCE'
p87
asS'Nasdaq'
p88
(lp89
S'PERSON'
p90
aS'ORGANIZATION'
p91
aS'ORGANIZATION:CORPORATION'
p92
asS'financial services'
p93
(lp94
S'PERSON'
p95
asS'Cowboys'
p96
(lp97
S'ORGANIZATION'
p98
asS'Paul'
p99
(lp100
S'PERSON'
p101
asS'American association'
p102
(lp103
S'ORGANIZATION'
p104
aS'ORGANIZATION:CORPORATION'
p105
asS'heading'
p106
(lp107
S'PERSON'
p108
asS'Europeans'
p109
(lp110
S'LOCATION:REGION'
p111
aS'LOCATION'
p112
aS'LOCATION:CONTINENT'
p113
asS'El Monte'
p114
(lp115
S'GPE'
p116
aS'GPE:CITY'
p117
asS'Joann'
p118
(lp119
S'ORGANIZATION'
p120
aS'ORGANIZATION:CORPORATION'
p121
asS'force'
p122
(lp123
S'PERSON'
p124
aS'ORGANIZATION'
p125
aS'ORGANIZATION:GOVERNMENT'
p126
asS'Whoopee'
p127
(lp128
S'WORK_OF_ART:BOOK'
p129
aS'WORK_OF_ART'
p130
asS'Eddy'
p131
(lp132
S'PERSON'
p133
asS'KPMG Peat Marwick'
p134
(lp135
S'ORGANIZATION'
p136
aS'ORGANIZATION:CORPORATION'
p137
asS'senior vice president'
p138
(lp139
S'PERSON'
p140
asS'Arizona'
p141
(lp142
S'GPE:STATE_PROVINCE'
p143
aS'GPE'
p144
aS'LOCATION'
p145
asS'Fireman'
p146
(lp147
S'PERSON'
p148
asS'John Burgee'
p149
(lp150
S'PERSON'
p151
asS'Sherman'
p152
(lp153
S'LAW'
p154
asS'Mazda'
p155
(lp156
S'ORGANIZATION'
p157
aS'ORGANIZATION:CORPORATION'
p158
asS'Agfa'
p159
(lp160
S'PERSON'
p161
aS'ORGANIZATION'
p162
aS'ORGANIZATION:CORPORATION'
p163
asS'reviving'
p164
(lp165
S'SUBSTANCE:DRUG'
p166
aS'SUBSTANCE'
p167
asS'Colorado Springs'
p168
(lp169
S'GPE'
p170
aS'GPE:CITY'
p171
asS'Crude oil'
p172
(lp173
S'SUBSTANCE:DRUG'
p174
aS'SUBSTANCE'
p175
aS'SUBSTANCE:CHEMICAL'
p176
asS'Proverbs'
p177
(lp178
S'WORK_OF_ART:BOOK'
p179
aS'WORK_OF_ART'
p180
asS'Greene'
p181
(lp182
S'LOCATION'
p183
asS'met'
p184
(lp185
S'EVENT'
p186
asS'inner-city'
p187
(lp188
S'PERSON'
p189
aS'ORGANIZATION'
p190
asS'high point'
p191
(lp192
S'GPE'
p193
aS'GPE:CITY'
p194
asS'Ohio'
p195
(lp196
S'GPE:STATE_PROVINCE'
p197
aS'GPE'
p198
aS'LOCATION'
p199
asS'Curry'
p200
(lp201
S'SUBSTANCE'
p202
aS'SUBSTANCE:FOOD'
p203
asS'The association'
p204
(lp205
S'PERSON'
p206
aS'ORGANIZATION'
p207
asS'real money'
p208
(lp209
S'PERSON'
p210
asS'items'
p211
(lp212
S'GAME'
p213
asS'Tuesday'
p214
(lp215
S'EVENT'
p216
asS'analysts'
p217
(lp218
S'PERSON'
p219
asS'engineers'
p220
(lp221
S'PERSON'
p222
asS'World War II'
p223
(lp224
S'EVENT'
p225
aS'EVENT:WAR'
p226
asS'criticism'
p227
(lp228
S'CONTACT_INFO:url'
p229
aS'CONTACT_INFO'
p230
asS'Group'
p231
(lp232
S'ORGANIZATION'
p233
aS'EVENT'
p234
aS'ORGANIZATION:GOVERNMENT'
p235
asS'Dreyfus Fund'
p236
(lp237
S'ORGANIZATION'
p238
aS'ORGANIZATION:CORPORATION'
p239
asS'Harvey'
p240
(lp241
S'PERSON'
p242
asS'Robert Byrd'
p243
(lp244
S'PERSON'
p245
asS'shells'
p246
(lp247
S'PRODUCT'
p248
aS'PRODUCT:WEAPON'
p249
asS'Pasadena'
p250
(lp251
S'GPE'
p252
aS'GPE:CITY'
p253
asS'Trees'
p254
(lp255
S'PLANT'
p256
asS'soybean'
p257
(lp258
S'PLANT'
p259
aS'SUBSTANCE'
p260
aS'PRODUCT'
p261
aS'SUBSTANCE:FOOD'
p262
asS'total'
p263
(lp264
S'SUBSTANCE'
p265
aS'EVENT'
p266
aS'SUBSTANCE:CHEMICAL'
p267
asS'unit'
p268
(lp269
S'ORGANIZATION'
p270
aS'ORGANIZATION:GOVERNMENT'
p271
asS'Platt'
p272
(lp273
S'PERSON'
p274
asS'Allianz AG'
p275
(lp276
S'ORGANIZATION'
p277
aS'ORGANIZATION:CORPORATION'
p278
asS'Corresponding'
p279
(lp280
S'PERSON'
p281
asS'Danbury'
p282
(lp283
S'GPE'
p284
aS'GPE:CITY'
p285
asS'army'
p286
(lp287
S'ORGANIZATION'
p288
aS'ORGANIZATION:GOVERNMENT'
p289
asS'Drugs'
p290
(lp291
S'SUBSTANCE:DRUG'
p292
aS'SUBSTANCE'
p293
asS'June'
p294
(lp295
S'PERSON'
p296
aS'ORGANIZATION'
p297
asS'Supervisors'
p298
(lp299
S'PERSON'
p300
asS'South American'
p301
(lp302
S'LOCATION'
p303
aS'LOCATION:CONTINENT'
p304
asS'building codes'
p305
(lp306
S'PERSON'
p307
asS'Arlen Specter'
p308
(lp309
S'PERSON'
p310
asS'N.J.'
p311
(lp312
S'GPE:STATE_PROVINCE'
p313
aS'GPE'
p314
aS'LOCATION'
p315
asS'Australian Treasury'
p316
(lp317
S'PERSON'
p318
asS'PaineWebber'
p319
(lp320
S'ORGANIZATION'
p321
aS'ORGANIZATION:CORPORATION'
p322
asS'Lake Charles'
p323
(lp324
S'GPE'
p325
aS'GPE:CITY'
p326
asS'posting'
p327
(lp328
S'CONTACT_INFO:url'
p329
aS'CONTACT_INFO'
p330
asS'lungs'
p331
(lp332
S'DISEASE'
p333
asS'Henri Matisse'
p334
(lp335
S'PERSON'
p336
asS'hurt'
p337
(lp338
S'DISEASE'
p339
asS'glass'
p340
(lp341
S'SUBSTANCE'
p342
asS'Chief Justice Warren Burger'
p343
(lp344
S'PERSON'
p345
asS'chief executive officer'
p346
(lp347
S'PERSON'
p348
asS'allies'
p349
(lp350
S'PERSON'
p351
asS'ongoing crisis'
p352
(lp353
S'EVENT'
p354
aS'EVENT:WAR'
p355
asS'supplemental'
p356
(lp357
S'SUBSTANCE:DRUG'
p358
aS'SUBSTANCE'
p359
aS'SUBSTANCE:FOOD'
p360
asS'Financial'
p361
(lp362
S'PERSON'
p363
asS'unaffiliated'
p364
(lp365
S'ORGANIZATION:POLITICAL'
p366
aS'ORGANIZATION'
p367
asS'Vittoria'
p368
(lp369
S'EVENT'
p370
aS'EVENT:WAR'
p371
asS'President Ford'
p372
(lp373
S'PERSON'
p374
asS'Santa Clara County'
p375
(lp376
S'LOCATION'
p377
asS'London-based'
p378
(lp379
S'GPE'
p380
aS'LOCATION'
p381
aS'GPE:CITY'
p382
asS'Occidental Petroleum'
p383
(lp384
S'ORGANIZATION'
p385
aS'ORGANIZATION:CORPORATION'
p386
asS'serpent'
p387
(lp388
S'PLANT'
p389
aS'ANIMAL'
p390
asS'blips'
p391
(lp392
S'WORK_OF_ART'
p393
aS'WORK_OF_ART:SONG'
p394
asS'newsweekly'
p395
(lp396
S'ORGANIZATION'
p397
aS'ORGANIZATION:CORPORATION'
p398
asS'chicken feed'
p399
(lp400
S'PLANT'
p401
aS'ANIMAL'
p402
asS'Michael Ballhaus'
p403
(lp404
S'PERSON'
p405
asS'ready'
p406
(lp407
S'WORK_OF_ART'
p408
asS'DPC'
p409
(lp410
S'FACILITY:ATTRACTION'
p411
aS'FACILITY'
p412
asS'General Electric'
p413
(lp414
S'ORGANIZATION'
p415
aS'ORGANIZATION:CORPORATION'
p416
asS'Washington Post'
p417
(lp418
S'WORK_OF_ART:BOOK'
p419
aS'ORGANIZATION'
p420
aS'WORK_OF_ART'
p421
aS'ORGANIZATION:CORPORATION'
p422
asS'scheduling'
p423
(lp424
S'LAW'
p425
asS'Goldman Sachs group'
p426
(lp427
S'ORGANIZATION'
p428
aS'ORGANIZATION:CORPORATION'
p429
asS'advancing'
p430
(lp431
S'EVENT'
p432
aS'EVENT:WAR'
p433
asS'hog'
p434
(lp435
S'PLANT'
p436
aS'ANIMAL'
p437
asS'The heavy'
p438
(lp439
S'PERSON'
p440
aS'ORGANIZATION'
p441
asS'nuts'
p442
(lp443
S'SUBSTANCE'
p444
aS'SUBSTANCE:FOOD'
p445
asS'Irving'
p446
(lp447
S'GPE'
p448
aS'GPE:CITY'
p449
asS'Irvine'
p450
(lp451
S'GPE'
p452
aS'GPE:CITY'
p453
asS'chief executive'
p454
(lp455
S'PERSON'
p456
asS'EEOC'
p457
(lp458
S'PERSON'
p459
asS'Jack'
p460
(lp461
S'PERSON'
p462
asS'Shelby County'
p463
(lp464
S'LOCATION'
p465
asS'U.K'
p466
(lp467
S'GPE'
p468
aS'LOCATION'
p469
aS'GPE:COUNTRY'
p470
asS'III'
p471
(lp472
S'PERSON'
p473
asS'Eritrea'
p474
(lp475
S'GPE'
p476
aS'GPE:COUNTRY'
p477
asS'briefcase'
p478
(lp479
S'WORK_OF_ART'
p480
asS'International Paper'
p481
(lp482
S'ORGANIZATION'
p483
aS'ORGANIZATION:CORPORATION'
p484
asS'Ollie'
p485
(lp486
S'PERSON'
p487
asS'Dean Witter'
p488
(lp489
S'ORGANIZATION'
p490
aS'ORGANIZATION:CORPORATION'
p491
asS'Castro'
p492
(lp493
S'PERSON'
p494
asS'Connolly'
p495
(lp496
S'ORGANIZATION'
p497
aS'ORGANIZATION:CORPORATION'
p498
asS'Fogg'
p499
(lp500
S'ORGANIZATION'
p501
aS'ORGANIZATION:MUSEUM'
p502
aS'FACILITY:ATTRACTION'
p503
aS'FACILITY:BUILDING'
p504
aS'FACILITY'
p505
asS'president'
p506
(lp507
S'PERSON'
p508
asS'Carlos'
p509
(lp510
S'PERSON'
p511
asS'All'
p512
(lp513
S'GPE'
p514
aS'GPE:COUNTRY'
p515
asS'Maxwell'
p516
(lp517
S'PERSON'
p518
asS'Japanese'
p519
(lp520
S'GPE'
p521
aS'LOCATION'
p522
aS'LANGUAGE'
p523
aS'GPE:COUNTRY'
p524
asS'Holliston'
p525
(lp526
S'GPE'
p527
aS'GPE:CITY'
p528
asS'New York County'
p529
(lp530
S'LOCATION'
p531
asS'Lloyd'
p532
(lp533
S'PERSON'
p534
asS'Oil production'
p535
(lp536
S'SUBSTANCE:DRUG'
p537
aS'SUBSTANCE'
p538
aS'SUBSTANCE:CHEMICAL'
p539
asS'health concerns'
p540
(lp541
S'DISEASE'
p542
asS'Beyond'
p543
(lp544
S'WORK_OF_ART'
p545
asS'operations'
p546
(lp547
S'SUBSTANCE:DRUG'
p548
aS'SUBSTANCE'
p549
asS'senators'
p550
(lp551
S'PERSON'
p552
aS'ORGANIZATION'
p553
aS'ORGANIZATION:GOVERNMENT'
p554
asS'executed'
p555
(lp556
S'EVENT'
p557
aS'EVENT:WAR'
p558
asS'task force'
p559
(lp560
S'ORGANIZATION'
p561
aS'ORGANIZATION:GOVERNMENT'
p562
asS'Hills'
p563
(lp564
S'GPE'
p565
aS'GPE:CITY'
p566
asS'office'
p567
(lp568
S'PERSON'
p569
asS'Gabriele'
p570
(lp571
S'PERSON'
p572
asS'Saab-Scania AB'
p573
(lp574
S'ORGANIZATION'
p575
aS'ORGANIZATION:CORPORATION'
p576
asS'Laurence'
p577
(lp578
S'PERSON'
p579
asS'luxury car'
p580
(lp581
S'PRODUCT:VEHICLE'
p582
aS'PRODUCT'
p583
asS'salmonella'
p584
(lp585
S'PLANT'
p586
asS'bombing'
p587
(lp588
S'EVENT'
p589
aS'EVENT:WAR'
p590
asS'His'
p591
(lp592
S'PERSON'
p593
asS'fit'
p594
(lp595
S'DISEASE'
p596
asS'personal'
p597
(lp598
S'PERSON'
p599
asS'United Press International'
p600
(lp601
S'ORGANIZATION'
p602
aS'ORGANIZATION:CORPORATION'
p603
asS'Drew'
p604
(lp605
S'PERSON'
p606
asS'writing'
p607
(lp608
S'PERSON'
p609
asS'Harris'
p610
(lp611
S'ORGANIZATION'
p612
aS'LOCATION'
p613
aS'ORGANIZATION:CORPORATION'
p614
asS'triggered'
p615
(lp616
S'EVENT'
p617
aS'EVENT:WAR'
p618
asS'Armenian'
p619
(lp620
S'GPE'
p621
aS'GPE:COUNTRY'
p622
aS'EVENT'
p623
aS'EVENT:WAR'
p624
asS'Judge'
p625
(lp626
S'PERSON'
p627
asS'Him'
p628
(lp629
S'PERSON'
p630
asS'Spain'
p631
(lp632
S'GPE'
p633
aS'GPE:CITY'
p634
asS'British Columbia'
p635
(lp636
S'GPE'
p637
aS'GPE:CITY'
p638
asS'Wilcox'
p639
(lp640
S'GPE'
p641
aS'GPE:CITY'
p642
asS'Aloe'
p643
(lp644
S'SUBSTANCE:DRUG'
p645
aS'PLANT'
p646
aS'SUBSTANCE'
p647
asS'plaster'
p648
(lp649
S'SUBSTANCE'
p650
asS'Generale'
p651
(lp652
S'PERSON'
p653
asS'Carballo'
p654
(lp655
S'GPE'
p656
aS'GPE:CITY'
p657
asS'Specialized'
p658
(lp659
S'ORGANIZATION'
p660
aS'ORGANIZATION:CORPORATION'
p661
asS'silver'
p662
(lp663
S'SUBSTANCE:DRUG'
p664
aS'SUBSTANCE'
p665
aS'SUBSTANCE:CHEMICAL'
p666
asS'bread'
p667
(lp668
S'SUBSTANCE'
p669
aS'SUBSTANCE:FOOD'
p670
asS'Liberal'
p671
(lp672
S'ORGANIZATION:POLITICAL'
p673
aS'ORGANIZATION'
p674
asS'Economists'
p675
(lp676
S'ORGANIZATION'
p677
aS'ORGANIZATION:EDUCATIONAL'
p678
asS'oxygen'
p679
(lp680
S'SUBSTANCE'
p681
aS'SUBSTANCE:CHEMICAL'
p682
asS'confronting'
p683
(lp684
S'EVENT'
p685
aS'EVENT:WAR'
p686
asS'Internal Revenue Service'
p687
(lp688
S'PERSON'
p689
asS'India'
p690
(lp691
S'GPE'
p692
aS'LOCATION'
p693
aS'GPE:CITY'
p694
asS'Fort Worth'
p695
(lp696
S'GPE'
p697
aS'GPE:CITY'
p698
asS'Four'
p699
(lp700
S'ORGANIZATION'
p701
aS'ORGANIZATION:CORPORATION'
p702
aS'PERSON'
p703
asS'Milan'
p704
(lp705
S'GPE'
p706
aS'GPE:CITY'
p707
asS'affiliate'
p708
(lp709
S'PERSON'
p710
asS'rodents'
p711
(lp712
S'PLANT'
p713
aS'ANIMAL'
p714
asS'side'
p715
(lp716
S'ORGANIZATION'
p717
asS'Bush administration'
p718
(lp719
S'PERSON'
p720
asS'financial'
p721
(lp722
S'PERSON'
p723
asS'Bethesda'
p724
(lp725
S'LOCATION'
p726
asS'International Business Machines'
p727
(lp728
S'PERSON'
p729
aS'ORGANIZATION'
p730
aS'ORGANIZATION:CORPORATION'
p731
asS'About'
p732
(lp733
S'ORGANIZATION'
p734
aS'ORGANIZATION:CORPORATION'
p735
aS'CONTACT_INFO:url'
p736
aS'CONTACT_INFO'
p737
asS'aide'
p738
(lp739
S'PERSON'
p740
asS'Anyone'
p741
(lp742
S'PERSON'
p743
aS'ORGANIZATION'
p744
asS'trading'
p745
(lp746
S'PERSON'
p747
asS'high schools'
p748
(lp749
S'PERSON'
p750
asS'navy'
p751
(lp752
S'PERSON'
p753
aS'ORGANIZATION:GOVERNMENT'
p754
aS'ORGANIZATION'
p755
aS'ORGANIZATION:CORPORATION'
p756
asS'Digital Equipment'
p757
(lp758
S'PERSON'
p759
aS'ORGANIZATION'
p760
aS'ORGANIZATION:CORPORATION'
p761
asS'Ginn'
p762
(lp763
S'PERSON'
p764
asS'network'
p765
(lp766
S'ORGANIZATION'
p767
aS'ORGANIZATION:CORPORATION'
p768
asS'fellows'
p769
(lp770
S'PERSON'
p771
asS'William'
p772
(lp773
S'PERSON'
p774
asS'Icahn'
p775
(lp776
S'ORGANIZATION'
p777
aS'ORGANIZATION:CORPORATION'
p778
asS'Eritrean'
p779
(lp780
S'GPE'
p781
aS'GPE:COUNTRY'
p782
asS'Palestinian politics'
p783
(lp784
S'GPE'
p785
aS'LOCATION'
p786
aS'GPE:COUNTRY'
p787
asS'appraisers'
p788
(lp789
S'PERSON'
p790
asS'Must'
p791
(lp792
S'PRODUCT'
p793
asS'Cuban'
p794
(lp795
S'GPE'
p796
aS'GPE:CITY'
p797
asS'Dodd'
p798
(lp799
S'PERSON'
p800
asS'The National Interest'
p801
(lp802
S'WORK_OF_ART:BOOK'
p803
aS'WORK_OF_ART'
p804
asS'managerial'
p805
(lp806
S'PERSON'
p807
asS'Watertown'
p808
(lp809
S'GPE'
p810
aS'GPE:CITY'
p811
asS'national ban'
p812
(lp813
S'EVENT'
p814
asS'disputes'
p815
(lp816
S'EVENT'
p817
asS'anti-Soviet'
p818
(lp819
S'EVENT'
p820
aS'EVENT:WAR'
p821
asS'N.Y.'
p822
(lp823
S'GPE:CITY'
p824
aS'GPE'
p825
aS'LOCATION'
p826
aS'ORGANIZATION'
p827
aS'ORGANIZATION:CORPORATION'
p828
asS'chief accountant'
p829
(lp830
S'PERSON'
p831
asS'Egg'
p832
(lp833
S'PRODUCT'
p834
aS'SUBSTANCE'
p835
aS'SUBSTANCE:FOOD'
p836
asS'South Korea'
p837
(lp838
S'GPE'
p839
aS'LOCATION'
p840
aS'GPE:COUNTRY'
p841
asS'Nixon'
p842
(lp843
S'PERSON'
p844
asS'McCaw Cellular'
p845
(lp846
S'ORGANIZATION'
p847
aS'ORGANIZATION:CORPORATION'
p848
asS'created'
p849
(lp850
S'PERSON'
p851
asS'Burnham'
p852
(lp853
S'GPE'
p854
aS'GPE:CITY'
p855
asS'Robert Mosbacher'
p856
(lp857
S'PERSON'
p858
asS'East Coast'
p859
(lp860
S'LOCATION:REGION'
p861
aS'LOCATION'
p862
asS'disturbed'
p863
(lp864
S'DISEASE'
p865
asS'Was'
p866
(lp867
S'PERSON'
p868
asS'Dick Cheney'
p869
(lp870
S'PERSON'
p871
asS'J.P.'
p872
(lp873
S'PERSON'
p874
asS'cleaning'
p875
(lp876
S'PERSON'
p877
asS'Bridges'
p878
(lp879
S'PERSON'
p880
asS'bus routes'
p881
(lp882
S'PRODUCT:VEHICLE'
p883
aS'PRODUCT'
p884
asS'economists'
p885
(lp886
S'ORGANIZATION'
p887
aS'ORGANIZATION:EDUCATIONAL'
p888
asS'Palestinian'
p889
(lp890
S'ORGANIZATION'
p891
aS'ORGANIZATION:GOVERNMENT'
p892
asS'Please'
p893
(lp894
S'WORK_OF_ART'
p895
aS'WORK_OF_ART:SONG'
p896
asS'primary'
p897
(lp898
S'PERSON'
p899
asS'executions'
p900
(lp901
S'EVENT'
p902
aS'EVENT:WAR'
p903
asS'gallium arsenide'
p904
(lp905
S'SUBSTANCE'
p906
aS'SUBSTANCE:CHEMICAL'
p907
asS'illustrate'
p908
(lp909
S'PERSON'
p910
asS'basketball'
p911
(lp912
S'ORGANIZATION'
p913
asS'service'
p914
(lp915
S'PERSON'
p916
asS'David Dinkins'
p917
(lp918
S'PERSON'
p919
asS'ASA'
p920
(lp921
S'ORGANIZATION'
p922
aS'ORGANIZATION:CORPORATION'
p923
asS'master'
p924
(lp925
S'PERSON'
p926
asS'infamous'
p927
(lp928
S'EVENT'
p929
asS'SEC'
p930
(lp931
S'ORGANIZATION'
p932
aS'ORGANIZATION:GOVERNMENT'
p933
asS'General Dynamics'
p934
(lp935
S'ORGANIZATION'
p936
aS'ORGANIZATION:CORPORATION'
p937
asS'dogs'
p938
(lp939
S'PLANT'
p940
aS'ANIMAL'
p941
asS'Whirlpool Corp.'
p942
(lp943
S'ORGANIZATION'
p944
aS'ORGANIZATION:CORPORATION'
p945
asS'cereal'
p946
(lp947
S'SUBSTANCE'
p948
aS'SUBSTANCE:FOOD'
p949
asS'swells'
p950
(lp951
S'DISEASE'
p952
asS'Actually'
p953
(lp954
S'WORK_OF_ART'
p955
aS'WORK_OF_ART:SONG'
p956
asS'Control Data'
p957
(lp958
S'ORGANIZATION'
p959
aS'ORGANIZATION:CORPORATION'
p960
asS'anxiety'
p961
(lp962
S'DISEASE'
p963
asS'Lamar Hunt'
p964
(lp965
S'PERSON'
p966
asS'tree'
p967
(lp968
S'PLANT'
p969
aS'SUBSTANCE'
p970
aS'PRODUCT'
p971
aS'SUBSTANCE:FOOD'
p972
asS'iron'
p973
(lp974
S'SUBSTANCE:DRUG'
p975
aS'SUBSTANCE'
p976
aS'SUBSTANCE:CHEMICAL'
p977
asS'The United Kingdom'
p978
(lp979
S'GPE'
p980
aS'LOCATION'
p981
aS'GPE:COUNTRY'
p982
asS'Browder'
p983
(lp984
S'PERSON'
p985
asS'soft drink'
p986
(lp987
S'PRODUCT'
p988
aS'SUBSTANCE'
p989
aS'SUBSTANCE:FOOD'
p990
asS'Trinidad'
p991
(lp992
S'GPE'
p993
aS'LOCATION'
p994
asS'Christ'
p995
(lp996
S'PERSON'
p997
asS'John Major'
p998
(lp999
S'PERSON'
p1000
asS'Chicago'
p1001
(lp1002
S'GPE'
p1003
aS'LOCATION'
p1004
aS'GPE:CITY'
p1005
asS'Emancipation Proclamation'
p1006
(lp1007
S'EVENT'
p1008
asS'Cray'
p1009
(lp1010
S'ORGANIZATION'
p1011
aS'ORGANIZATION:CORPORATION'
p1012
asS'ginger'
p1013
(lp1014
S'PLANT'
p1015
aS'SUBSTANCE'
p1016
aS'PRODUCT'
p1017
aS'SUBSTANCE:FOOD'
p1018
asS'arms control'
p1019
(lp1020
S'PERSON'
p1021
asS'Odeon'
p1022
(lp1023
S'ORGANIZATION'
p1024
aS'ORGANIZATION:CORPORATION'
p1025
asS'Rudolph Giuliani'
p1026
(lp1027
S'PERSON'
p1028
asS'ponder'
p1029
(lp1030
S'PERSON'
p1031
asS'person'
p1032
(lp1033
S'PERSON'
p1034
asS'Warren Rudman'
p1035
(lp1036
S'PERSON'
p1037
asS'luxury'
p1038
(lp1039
S'PRODUCT:VEHICLE'
p1040
aS'PRODUCT'
p1041
asS'forces'
p1042
(lp1043
S'ORGANIZATION'
p1044
aS'ORGANIZATION:GOVERNMENT'
p1045
asS'degenerated'
p1046
(lp1047
S'DISEASE'
p1048
asS'Cleo award'
p1049
(lp1050
S'WORK_OF_ART'
p1051
asS'quarterback'
p1052
(lp1053
S'PERSON'
p1054
asS'Jones'
p1055
(lp1056
S'PERSON'
p1057
asS'HUD'
p1058
(lp1059
S'ORGANIZATION'
p1060
aS'ORGANIZATION:GOVERNMENT'
p1061
asS'House Speaker'
p1062
(lp1063
S'PERSON'
p1064
asS'Inner City Broadcasting'
p1065
(lp1066
S'ORGANIZATION'
p1067
aS'ORGANIZATION:CORPORATION'
p1068
asS'The business'
p1069
(lp1070
S'PERSON'
p1071
aS'ORGANIZATION'
p1072
asS'Frederick'
p1073
(lp1074
S'GPE:CITY'
p1075
aS'PERSON'
p1076
aS'GPE'
p1077
asS'Los Angeles County'
p1078
(lp1079
S'GPE'
p1080
aS'LOCATION'
p1081
aS'GPE:CITY'
p1082
asS'Vanguard'
p1083
(lp1084
S'ORGANIZATION'
p1085
aS'ORGANIZATION:CORPORATION'
p1086
asS'Despair'
p1087
(lp1088
S'DISEASE'
p1089
asS'commanding'
p1090
(lp1091
S'PERSON'
p1092
asS'Attorney'
p1093
(lp1094
S'PERSON'
p1095
asS'Dennis'
p1096
(lp1097
S'PERSON'
p1098
asS'David Pryor'
p1099
(lp1100
S'PERSON'
p1101
asS'Randolph'
p1102
(lp1103
S'GPE'
p1104
aS'GPE:CITY'
p1105
asS'medical'
p1106
(lp1107
S'SUBSTANCE:DRUG'
p1108
aS'PERSON'
p1109
aS'SUBSTANCE'
p1110
asS'dog'
p1111
(lp1112
S'PLANT'
p1113
aS'ANIMAL'
p1114
asS'Bullock'
p1115
(lp1116
S'PLANT'
p1117
aS'ANIMAL'
p1118
asS'Cray Research'
p1119
(lp1120
S'ORGANIZATION'
p1121
aS'ORGANIZATION:CORPORATION'
p1122
asS'Lisbon'
p1123
(lp1124
S'GPE'
p1125
aS'GPE:CITY'
p1126
asS'Prudential Insurance'
p1127
(lp1128
S'ORGANIZATION'
p1129
aS'ORGANIZATION:CORPORATION'
p1130
asS'incomplete'
p1131
(lp1132
S'DISEASE'
p1133
asS'Thomas DiLorenzo'
p1134
(lp1135
S'PERSON'
p1136
asS'Union'
p1137
(lp1138
S'GPE'
p1139
aS'GPE:COUNTRY'
p1140
asS'Ahmad Jibril'
p1141
(lp1142
S'PERSON'
p1143
asS'John Connolly'
p1144
(lp1145
S'PERSON'
p1146
asS'McDonough'
p1147
(lp1148
S'PERSON'
p1149
asS'earth'
p1150
(lp1151
S'LOCATION'
p1152
asS'Joint Chiefs'
p1153
(lp1154
S'ORGANIZATION'
p1155
aS'ORGANIZATION:GOVERNMENT'
p1156
asS'European'
p1157
(lp1158
S'LOCATION:REGION'
p1159
aS'LOCATION'
p1160
aS'LOCATION:CONTINENT'
p1161
asS'dance academy'
p1162
(lp1163
S'WORK_OF_ART'
p1164
asS'delays'
p1165
(lp1166
S'PERSON'
p1167
asS'Republicans'
p1168
(lp1169
S'ORGANIZATION:POLITICAL'
p1170
aS'ORGANIZATION'
p1171
aS'EVENT'
p1172
asS'sugar'
p1173
(lp1174
S'PRODUCT'
p1175
aS'SUBSTANCE'
p1176
aS'SUBSTANCE:FOOD'
p1177
asS'Surrender'
p1178
(lp1179
S'WORK_OF_ART'
p1180
aS'WORK_OF_ART:SONG'
p1181
asS'Omnicare'
p1182
(lp1183
S'ORGANIZATION'
p1184
aS'ORGANIZATION:CORPORATION'
p1185
asS'Netherlands'
p1186
(lp1187
S'GPE'
p1188
aS'LOCATION'
p1189
aS'GPE:COUNTRY'
p1190
asS'D.C.'
p1191
(lp1192
S'GPE'
p1193
aS'LOCATION'
p1194
aS'GPE:CITY'
p1195
asS'business directories'
p1196
(lp1197
S'CONTACT_INFO:url'
p1198
aS'CONTACT_INFO'
p1199
asS'asbestos'
p1200
(lp1201
S'SUBSTANCE'
p1202
asS'de'
p1203
(lp1204
S'LANGUAGE'
p1205
asS'Days'
p1206
(lp1207
S'WORK_OF_ART'
p1208
asS'Matagorda County'
p1209
(lp1210
S'LOCATION'
p1211
asS'Asian Art Museum'
p1212
(lp1213
S'ORGANIZATION'
p1214
aS'ORGANIZATION:MUSEUM'
p1215
aS'FACILITY:ATTRACTION'
p1216
aS'FACILITY:BUILDING'
p1217
aS'FACILITY'
p1218
asS'haunted'
p1219
(lp1220
S'DISEASE'
p1221
asS'First Union'
p1222
(lp1223
S'ORGANIZATION'
p1224
aS'ORGANIZATION:CORPORATION'
p1225
asS'Frank Lorenzo'
p1226
(lp1227
S'PERSON'
p1228
asS'Soviet'
p1229
(lp1230
S'GPE'
p1231
aS'GPE:COUNTRY'
p1232
asS'Gloucester'
p1233
(lp1234
S'GPE'
p1235
aS'LOCATION'
p1236
aS'GPE:CITY'
p1237
asS'Senators'
p1238
(lp1239
S'PERSON'
p1240
aS'ORGANIZATION'
p1241
aS'ORGANIZATION:GOVERNMENT'
p1242
asS'runs'
p1243
(lp1244
S'PERSON'
p1245
asS'Prudential-Bache Securities'
p1246
(lp1247
S'ORGANIZATION'
p1248
aS'ORGANIZATION:CORPORATION'
p1249
asS'Moore'
p1250
(lp1251
S'GPE'
p1252
aS'GPE:CITY'
p1253
asS'soybean oil'
p1254
(lp1255
S'PLANT'
p1256
aS'SUBSTANCE'
p1257
aS'PRODUCT'
p1258
aS'SUBSTANCE:FOOD'
p1259
asS'Washington'
p1260
(lp1261
S'GPE:STATE_PROVINCE'
p1262
aS'GPE'
p1263
aS'LOCATION'
p1264
aS'GPE:CITY'
p1265
asS'Jonathan Demme'
p1266
(lp1267
S'PERSON'
p1268
asS'Peres'
p1269
(lp1270
S'PERSON'
p1271
asS'Qintex'
p1272
(lp1273
S'ORGANIZATION'
p1274
aS'ORGANIZATION:CORPORATION'
p1275
asS'James Sasser'
p1276
(lp1277
S'PERSON'
p1278
asS'mayor'
p1279
(lp1280
S'PERSON'
p1281
asS'stock market'
p1282
(lp1283
S'ORGANIZATION'
p1284
asS'Partners'
p1285
(lp1286
S'PERSON'
p1287
asS'Merkur'
p1288
(lp1289
S'ORGANIZATION'
p1290
aS'ORGANIZATION:CORPORATION'
p1291
asS'District'
p1292
(lp1293
S'GPE'
p1294
aS'LOCATION'
p1295
aS'GPE:CITY'
p1296
asS'habit'
p1297
(lp1298
S'DISEASE'
p1299
asS'Hospital'
p1300
(lp1301
S'FACILITY:BUILDING'
p1302
aS'FACILITY'
p1303
asS'Carter administration'
p1304
(lp1305
S'PERSON'
p1306
asS'Rendell'
p1307
(lp1308
S'PERSON'
p1309
asS'Minneapolis police'
p1310
(lp1311
S'ORGANIZATION'
p1312
aS'ORGANIZATION:GOVERNMENT'
p1313
asS'result'
p1314
(lp1315
S'GAME'
p1316
asS'Harvard University'
p1317
(lp1318
S'PERSON'
p1319
aS'ORGANIZATION'
p1320
aS'ORGANIZATION:EDUCATIONAL'
p1321
aS'ORGANIZATION:CORPORATION'
p1322
asS'cattle'
p1323
(lp1324
S'PLANT'
p1325
aS'ANIMAL'
p1326
asS'Butler'
p1327
(lp1328
S'PERSON'
p1329
asS'John'
p1330
(lp1331
S'WORK_OF_ART:BOOK'
p1332
aS'PERSON'
p1333
aS'WORK_OF_ART'
p1334
asS'strategic review'
p1335
(lp1336
S'WORK_OF_ART:BOOK'
p1337
aS'WORK_OF_ART'
p1338
asS'continent'
p1339
(lp1340
S'LOCATION'
p1341
aS'LOCATION:CONTINENT'
p1342
asS'opened'
p1343
(lp1344
S'FACILITY:ATTRACTION'
p1345
aS'FACILITY:BUILDING'
p1346
aS'FACILITY'
p1347
asS'bracing'
p1348
(lp1349
S'SUBSTANCE'
p1350
asS'Art Agnos'
p1351
(lp1352
S'PERSON'
p1353
asS'scorn'
p1354
(lp1355
S'PERSON'
p1356
aS'ORGANIZATION'
p1357
asS'David Hockney'
p1358
(lp1359
S'PERSON'
p1360
asS'economic theory'
p1361
(lp1362
S'ORGANIZATION'
p1363
aS'ORGANIZATION:EDUCATIONAL'
p1364
asS'Hurst'
p1365
(lp1366
S'ORGANIZATION'
p1367
aS'ORGANIZATION:CORPORATION'
p1368
asS'The government'
p1369
(lp1370
S'ORGANIZATION'
p1371
aS'ORGANIZATION:GOVERNMENT'
p1372
asS'Pinnacle'
p1373
(lp1374
S'ORGANIZATION'
p1375
aS'ORGANIZATION:CORPORATION'
p1376
aS'PERSON'
p1377
asS'nationwide'
p1378
(lp1379
S'GPE'
p1380
aS'LOCATION'
p1381
aS'GPE:COUNTRY'
p1382
asS'confusion'
p1383
(lp1384
S'DISEASE'
p1385
asS'Jeff Bridges'
p1386
(lp1387
S'PERSON'
p1388
asS'Progressive Architecture'
p1389
(lp1390
S'WORK_OF_ART'
p1391
asS'Bronx'
p1392
(lp1393
S'LOCATION'
p1394
asS'Senator Bob Dole'
p1395
(lp1396
S'PERSON'
p1397
asS'suggested'
p1398
(lp1399
S'ORGANIZATION'
p1400
aS'ORGANIZATION:CORPORATION'
p1401
asS'protect'
p1402
(lp1403
S'ORGANIZATION'
p1404
aS'ORGANIZATION:GOVERNMENT'
p1405
asS'McDonald'
p1406
(lp1407
S'PERSON'
p1408
asS'Maloney'
p1409
(lp1410
S'PERSON'
p1411
asS'apple pie'
p1412
(lp1413
S'PRODUCT'
p1414
aS'SUBSTANCE'
p1415
aS'SUBSTANCE:FOOD'
p1416
asS'North Carolina'
p1417
(lp1418
S'GPE:STATE_PROVINCE'
p1419
aS'GPE'
p1420
aS'LOCATION'
p1421
asS'The humans'
p1422
(lp1423
S'PERSON'
p1424
asS'CS First Boston'
p1425
(lp1426
S'ORGANIZATION'
p1427
aS'ORGANIZATION:CORPORATION'
p1428
asS'Dreyfus'
p1429
(lp1430
S'ORGANIZATION'
p1431
aS'ORGANIZATION:CORPORATION'
p1432
asS'Navy'
p1433
(lp1434
S'PERSON'
p1435
aS'ORGANIZATION:GOVERNMENT'
p1436
aS'ORGANIZATION'
p1437
aS'ORGANIZATION:CORPORATION'
p1438
asS'cotton candy'
p1439
(lp1440
S'PRODUCT'
p1441
aS'SUBSTANCE'
p1442
aS'SUBSTANCE:FOOD'
p1443
asS'southeastern'
p1444
(lp1445
S'LOCATION:REGION'
p1446
aS'LOCATION'
p1447
asS'Freeport-McMoRan'
p1448
(lp1449
S'ORGANIZATION'
p1450
aS'ORGANIZATION:CORPORATION'
p1451
asS'Initial'
p1452
(lp1453
S'PERSON'
p1454
aS'ORGANIZATION'
p1455
aS'ORGANIZATION:CORPORATION'
p1456
asS'Petroleum'
p1457
(lp1458
S'SUBSTANCE:DRUG'
p1459
aS'SUBSTANCE'
p1460
aS'SUBSTANCE:CHEMICAL'
p1461
asS'North Sea oil'
p1462
(lp1463
S'FACILITY'
p1464
asS'TVs'
p1465
(lp1466
S'WORK_OF_ART'
p1467
asS'Market Street'
p1468
(lp1469
S'FACILITY:HIGHWAY_STREET'
p1470
aS'FACILITY'
p1471
asS'Board'
p1472
(lp1473
S'PERSON'
p1474
asS'Ireland'
p1475
(lp1476
S'GPE'
p1477
aS'LOCATION'
p1478
aS'GPE:COUNTRY'
p1479
asS'pregnancy'
p1480
(lp1481
S'DISEASE'
p1482
asS'Daniel Inouye'
p1483
(lp1484
S'PERSON'
p1485
asS'cockroaches'
p1486
(lp1487
S'PLANT'
p1488
aS'ANIMAL'
p1489
asS'Professional Photographers'
p1490
(lp1491
S'PERSON'
p1492
asS'Southern'
p1493
(lp1494
S'LOCATION:REGION'
p1495
aS'LOCATION'
p1496
asS'Eastman Kodak Co.'
p1497
(lp1498
S'ORGANIZATION'
p1499
aS'ORGANIZATION:CORPORATION'
p1500
aS'PERSON'
p1501
asS'Berbera'
p1502
(lp1503
S'GPE'
p1504
aS'GPE:CITY'
p1505
asS'basic'
p1506
(lp1507
S'PERSON'
p1508
asS'TVA'
p1509
(lp1510
S'ORGANIZATION'
p1511
aS'ORGANIZATION:CORPORATION'
p1512
asS'Americans With Disabilities Act'
p1513
(lp1514
S'LAW'
p1515
asS'congressional representatives'
p1516
(lp1517
S'PERSON'
p1518
aS'ORGANIZATION'
p1519
aS'ORGANIZATION:GOVERNMENT'
p1520
asS'Georgia'
p1521
(lp1522
S'GPE:STATE_PROVINCE'
p1523
aS'GPE'
p1524
aS'LOCATION'
p1525
asS'Conn.'
p1526
(lp1527
S'GPE:STATE_PROVINCE'
p1528
aS'GPE'
p1529
aS'LOCATION'
p1530
aS'PERSON'
p1531
asS'Bay area'
p1532
(lp1533
S'LOCATION:REGION'
p1534
aS'LOCATION'
p1535
asS'drugs'
p1536
(lp1537
S'SUBSTANCE:DRUG'
p1538
aS'SUBSTANCE'
p1539
asS'Dow Jones'
p1540
(lp1541
S'ORGANIZATION'
p1542
aS'ORGANIZATION:CORPORATION'
p1543
aS'PERSON'
p1544
asS'The Fabulous Baker Boys'
p1545
(lp1546
S'WORK_OF_ART'
p1547
asS'Anaheim'
p1548
(lp1549
S'GPE'
p1550
aS'GPE:CITY'
p1551
asS'Two guys'
p1552
(lp1553
S'ORGANIZATION'
p1554
aS'ORGANIZATION:CORPORATION'
p1555
asS'Secretary'
p1556
(lp1557
S'PERSON'
p1558
aS'ORGANIZATION'
p1559
aS'ORGANIZATION:GOVERNMENT'
p1560
asS'deliberations'
p1561
(lp1562
S'EVENT'
p1563
asS'chicanery'
p1564
(lp1565
S'PERSON'
p1566
aS'ORGANIZATION'
p1567
asS'Co'
p1568
(lp1569
S'GPE:STATE_PROVINCE'
p1570
aS'GPE'
p1571
aS'SUBSTANCE'
p1572
aS'LOCATION'
p1573
aS'SUBSTANCE:CHEMICAL'
p1574
asS'defending'
p1575
(lp1576
S'EVENT'
p1577
asS'Tenn.'
p1578
(lp1579
S'GPE:STATE_PROVINCE'
p1580
aS'GPE'
p1581
aS'LOCATION'
p1582
asS'Ca'
p1583
(lp1584
S'SUBSTANCE:DRUG'
p1585
aS'SUBSTANCE'
p1586
aS'SUBSTANCE:CHEMICAL'
p1587
asS'Metropolitan Police'
p1588
(lp1589
S'ORGANIZATION'
p1590
aS'ORGANIZATION:GOVERNMENT'
p1591
asS'Wash'
p1592
(lp1593
S'GPE:STATE_PROVINCE'
p1594
aS'GPE'
p1595
aS'LOCATION'
p1596
asS'neat'
p1597
(lp1598
S'PLANT'
p1599
aS'ANIMAL'
p1600
asS'Cleveland'
p1601
(lp1602
S'GPE'
p1603
aS'LOCATION'
p1604
aS'GPE:CITY'
p1605
asS'Owning'
p1606
(lp1607
S'PERSON'
p1608
asS'campaign manager'
p1609
(lp1610
S'PERSON'
p1611
asS'Kidder Peabody'
p1612
(lp1613
S'ORGANIZATION'
p1614
aS'ORGANIZATION:CORPORATION'
p1615
asS'Ellis'
p1616
(lp1617
S'GPE'
p1618
aS'FACILITY:ATTRACTION'
p1619
aS'FACILITY'
p1620
asS'Los Gatos'
p1621
(lp1622
S'GPE'
p1623
aS'GPE:CITY'
p1624
asS'Donuts'
p1625
(lp1626
S'PRODUCT'
p1627
aS'SUBSTANCE'
p1628
aS'SUBSTANCE:FOOD'
p1629
asS'Athens'
p1630
(lp1631
S'GPE'
p1632
aS'LOCATION'
p1633
aS'GPE:CITY'
p1634
asS'defeated'
p1635
(lp1636
S'EVENT'
p1637
aS'EVENT:WAR'
p1638
asS'Bush'
p1639
(lp1640
S'PERSON'
p1641
asS'experts'
p1642
(lp1643
S'PERSON'
p1644
asS'Dole'
p1645
(lp1646
S'PERSON'
p1647
asS'Steven Jobs'
p1648
(lp1649
S'PERSON'
p1650
asS'disappear'
p1651
(lp1652
S'EVENT'
p1653
aS'EVENT:WAR'
p1654
asS'Seymour Cray'
p1655
(lp1656
S'PERSON'
p1657
asS'Jacqueline'
p1658
(lp1659
S'PERSON'
p1660
asS'confirmed'
p1661
(lp1662
S'ORGANIZATION'
p1663
aS'ORGANIZATION:GOVERNMENT'
p1664
asS'Epson'
p1665
(lp1666
S'ORGANIZATION'
p1667
aS'ORGANIZATION:CORPORATION'
p1668
asS'Bureaucrat'
p1669
(lp1670
S'PERSON'
p1671
asS'Papua New Guinea'
p1672
(lp1673
S'GPE'
p1674
aS'LOCATION'
p1675
aS'GPE:COUNTRY'
p1676
asS'Seagate'
p1677
(lp1678
S'ORGANIZATION'
p1679
aS'ORGANIZATION:CORPORATION'
p1680
asS'Dubbed'
p1681
(lp1682
S'PERSON'
p1683
asS'Franklin Roosevelt'
p1684
(lp1685
S'PERSON'
p1686
asS'North American'
p1687
(lp1688
S'GPE'
p1689
aS'LOCATION'
p1690
aS'GPE:COUNTRY'
p1691
asS'President'
p1692
(lp1693
S'PERSON'
p1694
asS'Barry Diller'
p1695
(lp1696
S'PERSON'
p1697
asS'independent'
p1698
(lp1699
S'ORGANIZATION:POLITICAL'
p1700
aS'ORGANIZATION'
p1701
aS'ORGANIZATION:CORPORATION'
p1702
asS'Budapest'
p1703
(lp1704
S'GPE'
p1705
aS'LOCATION'
p1706
aS'GPE:CITY'
p1707
asS'youth daily'
p1708
(lp1709
S'WORK_OF_ART:BOOK'
p1710
aS'WORK_OF_ART'
p1711
asS'pick'
p1712
(lp1713
S'EVENT'
p1714
asS'Ottoman Empire'
p1715
(lp1716
S'GPE'
p1717
aS'GPE:COUNTRY'
p1718
asS'Raytheon'
p1719
(lp1720
S'ORGANIZATION'
p1721
aS'ORGANIZATION:CORPORATION'
p1722
aS'PERSON'
p1723
asS'Morris'
p1724
(lp1725
S'PERSON'
p1726
asS'Builders'
p1727
(lp1728
S'PERSON'
p1729
asS'Soviet Union'
p1730
(lp1731
S'GPE'
p1732
aS'GPE:COUNTRY'
p1733
asS'Gates'
p1734
(lp1735
S'PERSON'
p1736
asS'Ford Motor Co'
p1737
(lp1738
S'ORGANIZATION'
p1739
aS'ORGANIZATION:CORPORATION'
p1740
asS'RJR'
p1741
(lp1742
S'ORGANIZATION'
p1743
aS'ORGANIZATION:CORPORATION'
p1744
asS'Attorney General'
p1745
(lp1746
S'PERSON'
p1747
asS'Joan'
p1748
(lp1749
S'PERSON'
p1750
asS'burgers'
p1751
(lp1752
S'PRODUCT'
p1753
aS'SUBSTANCE'
p1754
aS'SUBSTANCE:FOOD'
p1755
asS'Shamir'
p1756
(lp1757
S'PERSON'
p1758
asS'Portland'
p1759
(lp1760
S'GPE'
p1761
aS'GPE:CITY'
p1762
asS'Mobil'
p1763
(lp1764
S'ORGANIZATION'
p1765
aS'ORGANIZATION:CORPORATION'
p1766
asS'outnumbered'
p1767
(lp1768
S'WORK_OF_ART'
p1769
asS'Shaffer'
p1770
(lp1771
S'PERSON'
p1772
asS'Hastings'
p1773
(lp1774
S'GPE'
p1775
aS'LOCATION'
p1776
aS'GPE:CITY'
p1777
asS'Russell'
p1778
(lp1779
S'PERSON'
p1780
asS'Lincoln Savings'
p1781
(lp1782
S'ORGANIZATION'
p1783
aS'ORGANIZATION:CORPORATION'
p1784
asS'Bureaucrats'
p1785
(lp1786
S'PERSON'
p1787
asS'Finance Ministry'
p1788
(lp1789
S'ORGANIZATION'
p1790
aS'ORGANIZATION:GOVERNMENT'
p1791
asS'Management'
p1792
(lp1793
S'PERSON'
p1794
asS'human'
p1795
(lp1796
S'PLANT'
p1797
asS'Aeroflot'
p1798
(lp1799
S'ORGANIZATION'
p1800
aS'ORGANIZATION:CORPORATION'
p1801
asS'Hanks'
p1802
(lp1803
S'PERSON'
p1804
asS'group managing director'
p1805
(lp1806
S'PERSON'
p1807
asS'Barnum'
p1808
(lp1809
S'PERSON'
p1810
asS'magistrates'
p1811
(lp1812
S'PERSON'
p1813
asS'justices'
p1814
(lp1815
S'ORGANIZATION'
p1816
aS'ORGANIZATION:GOVERNMENT'
p1817
asS'News'
p1818
(lp1819
S'ORGANIZATION'
p1820
aS'ORGANIZATION:CORPORATION'
p1821
aS'PERSON'
p1822
asS'Philip'
p1823
(lp1824
S'PERSON'
p1825
asS'east'
p1826
(lp1827
S'LOCATION:REGION'
p1828
aS'LOCATION'
p1829
asS'Uhlmann'
p1830
(lp1831
S'PERSON'
p1832
asS'municipal'
p1833
(lp1834
S'ORGANIZATION'
p1835
aS'LOCATION'
p1836
aS'ORGANIZATION:GOVERNMENT'
p1837
asS'Menlo Park'
p1838
(lp1839
S'GPE'
p1840
aS'GPE:CITY'
p1841
asS'sailors'
p1842
(lp1843
S'PERSON'
p1844
asS'James'
p1845
(lp1846
S'PERSON'
p1847
asS'Worth'
p1848
(lp1849
S'WORK_OF_ART:BOOK'
p1850
aS'WORK_OF_ART'
p1851
asS'Corona'
p1852
(lp1853
S'GPE:CITY'
p1854
aS'GPE'
p1855
aS'PERSON'
p1856
asS'radio contact'
p1857
(lp1858
S'ORGANIZATION'
p1859
aS'ORGANIZATION:CORPORATION'
p1860
asS'Chrysler'
p1861
(lp1862
S'ORGANIZATION'
p1863
aS'ORGANIZATION:CORPORATION'
p1864
asS'Missouri'
p1865
(lp1866
S'GPE:STATE_PROVINCE'
p1867
aS'GPE'
p1868
aS'LOCATION'
p1869
asS'judge'
p1870
(lp1871
S'PERSON'
p1872
asS'New Zealand'
p1873
(lp1874
S'GPE'
p1875
aS'LOCATION'
p1876
aS'GPE:COUNTRY'
p1877
asS'advanced'
p1878
(lp1879
S'PERSON'
p1880
asS'wreckage'
p1881
(lp1882
S'EVENT'
p1883
asS'Commerce Department'
p1884
(lp1885
S'ORGANIZATION'
p1886
aS'ORGANIZATION:GOVERNMENT'
p1887
asS'Lowry'
p1888
(lp1889
S'PERSON'
p1890
asS'The report'
p1891
(lp1892
S'WORK_OF_ART:BOOK'
p1893
aS'WORK_OF_ART'
p1894
asS'San Diego Yacht Club'
p1895
(lp1896
S'ORGANIZATION'
p1897
aS'ORGANIZATION:CORPORATION'
p1898
asS'Book'
p1899
(lp1900
S'WORK_OF_ART:BOOK'
p1901
aS'WORK_OF_ART'
p1902
asS'offices'
p1903
(lp1904
S'PERSON'
p1905
asS'Steven'
p1906
(lp1907
S'PERSON'
p1908
asS'notorious'
p1909
(lp1910
S'WORK_OF_ART'
p1911
aS'WORK_OF_ART:SONG'
p1912
asS'security'
p1913
(lp1914
S'PERSON'
p1915
asS'Pentagon'
p1916
(lp1917
S'PERSON'
p1918
aS'EVENT:WAR'
p1919
aS'ORGANIZATION:CORPORATION'
p1920
aS'ORGANIZATION'
p1921
aS'ORGANIZATION:GOVERNMENT'
p1922
aS'EVENT'
p1923
asS'TV sets'
p1924
(lp1925
S'WORK_OF_ART'
p1926
asS'Warren'
p1927
(lp1928
S'GPE'
p1929
aS'GPE:CITY'
p1930
asS'Swedish'
p1931
(lp1932
S'GPE'
p1933
aS'GPE:COUNTRY'
p1934
aS'ORGANIZATION'
p1935
aS'ORGANIZATION:GOVERNMENT'
p1936
asS'attorney'
p1937
(lp1938
S'PERSON'
p1939
asS'incumbents'
p1940
(lp1941
S'PERSON'
p1942
asS'Milpitas'
p1943
(lp1944
S'GPE'
p1945
aS'GPE:CITY'
p1946
asS'Beef'
p1947
(lp1948
S'PRODUCT'
p1949
aS'SUBSTANCE'
p1950
aS'SUBSTANCE:FOOD'
p1951
asS'people'
p1952
(lp1953
S'PLANT'
p1954
asS'vice president'
p1955
(lp1956
S'PERSON'
p1957
asS'dead'
p1958
(lp1959
S'DISEASE'
p1960
asS'Commission'
p1961
(lp1962
S'ORGANIZATION'
p1963
aS'ORGANIZATION:GOVERNMENT'
p1964
asS'Much'
p1965
(lp1966
S'ORGANIZATION'
p1967
aS'ORGANIZATION:CORPORATION'
p1968
asS'Mossman'
p1969
(lp1970
S'GPE'
p1971
aS'GPE:CITY'
p1972
asS'Norton'
p1973
(lp1974
S'GPE'
p1975
aS'GPE:CITY'
p1976
asS'Abbe'
p1977
(lp1978
S'PERSON'
p1979
asS'Lee'
p1980
(lp1981
S'PERSON'
p1982
asS'Cuba'
p1983
(lp1984
S'GPE'
p1985
aS'GPE:CITY'
p1986
asS'Jennifer Tilly'
p1987
(lp1988
S'PERSON'
p1989
asS'ice'
p1990
(lp1991
S'PRODUCT'
p1992
aS'SUBSTANCE'
p1993
asS'Convertible'
p1994
(lp1995
S'PRODUCT:VEHICLE'
p1996
aS'PRODUCT'
p1997
asS'Keith'
p1998
(lp1999
S'PERSON'
p2000
asS'National Bureau'
p2001
(lp2002
S'ORGANIZATION'
p2003
aS'ORGANIZATION:CORPORATION'
p2004
asS'Europe'
p2005
(lp2006
S'LOCATION:REGION'
p2007
aS'LOCATION'
p2008
aS'LOCATION:CONTINENT'
p2009
asS'Granny Smith'
p2010
(lp2011
S'SUBSTANCE'
p2012
aS'SUBSTANCE:FOOD'
p2013
asS'marketing'
p2014
(lp2015
S'PERSON'
p2016
asS'corn'
p2017
(lp2018
S'PLANT'
p2019
aS'SUBSTANCE'
p2020
aS'PRODUCT'
p2021
aS'SUBSTANCE:FOOD'
p2022
asS'Neal'
p2023
(lp2024
S'PERSON'
p2025
asS'North America'
p2026
(lp2027
S'LOCATION'
p2028
aS'LOCATION:CONTINENT'
p2029
asS'Sweden'
p2030
(lp2031
S'GPE'
p2032
aS'GPE:COUNTRY'
p2033
aS'ORGANIZATION'
p2034
aS'ORGANIZATION:GOVERNMENT'
p2035
asS'Georgia-Pacific'
p2036
(lp2037
S'ORGANIZATION'
p2038
aS'ORGANIZATION:CORPORATION'
p2039
asS'city hall'
p2040
(lp2041
S'GPE'
p2042
aS'GPE:CITY'
p2043
asS'post'
p2044
(lp2045
S'CONTACT_INFO:url'
p2046
aS'CONTACT_INFO'
p2047
asS'First'
p2048
(lp2049
S'LAW'
p2050
aS'EVENT'
p2051
aS'EVENT:WAR'
p2052
asS'census'
p2053
(lp2054
S'EVENT'
p2055
asS'Union Bank'
p2056
(lp2057
S'ORGANIZATION'
p2058
aS'ORGANIZATION:CORPORATION'
p2059
asS'attacks'
p2060
(lp2061
S'EVENT'
p2062
aS'EVENT:WAR'
p2063
asS'Seymour'
p2064
(lp2065
S'GPE'
p2066
aS'GPE:CITY'
p2067
asS'Bronson'
p2068
(lp2069
S'PERSON'
p2070
asS'Japan'
p2071
(lp2072
S'GPE'
p2073
aS'LOCATION'
p2074
aS'GPE:COUNTRY'
p2075
asS'high school'
p2076
(lp2077
S'PERSON'
p2078
asS'genocide'
p2079
(lp2080
S'EVENT'
p2081
aS'EVENT:WAR'
p2082
asS'Tennessee Valley Authority'
p2083
(lp2084
S'ORGANIZATION'
p2085
aS'ORGANIZATION:CORPORATION'
p2086
asS'raised'
p2087
(lp2088
S'PERSON'
p2089
asS'Jamie Whitten'
p2090
(lp2091
S'PERSON'
p2092
asS'Assistant Secretary'
p2093
(lp2094
S'PERSON'
p2095
asS'Cup'
p2096
(lp2097
S'EVENT'
p2098
asS'petroleum'
p2099
(lp2100
S'SUBSTANCE:DRUG'
p2101
aS'SUBSTANCE'
p2102
aS'SUBSTANCE:CHEMICAL'
p2103
asS'British colony'
p2104
(lp2105
S'GPE'
p2106
aS'LOCATION'
p2107
aS'GPE:COUNTRY'
p2108
asS'Fairfield'
p2109
(lp2110
S'GPE'
p2111
aS'GPE:CITY'
p2112
asS'freshman'
p2113
(lp2114
S'PERSON'
p2115
asS'Aaron'
p2116
(lp2117
S'PERSON'
p2118
asS'diabetics'
p2119
(lp2120
S'DISEASE'
p2121
asS'librarian'
p2122
(lp2123
S'PERSON'
p2124
asS'Commonwealth Edison'
p2125
(lp2126
S'ORGANIZATION'
p2127
aS'ORGANIZATION:CORPORATION'
p2128
asS'Westdeutsche Landesbank Girozentrale'
p2129
(lp2130
S'ORGANIZATION'
p2131
aS'ORGANIZATION:CORPORATION'
p2132
asS'dispatching'
p2133
(lp2134
S'PERSON'
p2135
asS'Popular Photography'
p2136
(lp2137
S'WORK_OF_ART:BOOK'
p2138
aS'WORK_OF_ART'
p2139
asS'support'
p2140
(lp2141
S'SUBSTANCE:DRUG'
p2142
aS'PERSON'
p2143
aS'SUBSTANCE'
p2144
asS'initial'
p2145
(lp2146
S'LANGUAGE'
p2147
asS'Castrol'
p2148
(lp2149
S'ORGANIZATION'
p2150
aS'ORGANIZATION:CORPORATION'
p2151
asS'Intel Corp.'
p2152
(lp2153
S'PERSON'
p2154
aS'ORGANIZATION'
p2155
aS'ORGANIZATION:CORPORATION'
p2156
asS'HOT TOPIC'
p2157
(lp2158
S'ORGANIZATION'
p2159
aS'ORGANIZATION:CORPORATION'
p2160
asS'Art Modell'
p2161
(lp2162
S'PERSON'
p2163
asS'head'
p2164
(lp2165
S'PERSON'
p2166
asS'gaseous'
p2167
(lp2168
S'SUBSTANCE'
p2169
asS'January'
p2170
(lp2171
S'EVENT'
p2172
asS'English oaks'
p2173
(lp2174
S'PLANT'
p2175
asS'Dresdner Bank'
p2176
(lp2177
S'ORGANIZATION'
p2178
aS'ORGANIZATION:CORPORATION'
p2179
asS'The project'
p2180
(lp2181
S'WORK_OF_ART:BOOK'
p2182
aS'WORK_OF_ART'
p2183
aS'CONTACT_INFO:url'
p2184
aS'CONTACT_INFO'
p2185
asS'federal appeals court'
p2186
(lp2187
S'ORGANIZATION'
p2188
aS'ORGANIZATION:GOVERNMENT'
p2189
asS'IT'
p2190
(lp2191
S'PERSON'
p2192
asS'Seventeen'
p2193
(lp2194
S'WORK_OF_ART:BOOK'
p2195
aS'WORK_OF_ART'
p2196
asS'injury'
p2197
(lp2198
S'DISEASE'
p2199
asS'born'
p2200
(lp2201
S'SUBSTANCE:DRUG'
p2202
aS'SUBSTANCE'
p2203
asS'Toni'
p2204
(lp2205
S'PERSON'
p2206
asS'undefeated'
p2207
(lp2208
S'EVENT'
p2209
asS'County'
p2210
(lp2211
S'LOCATION'
p2212
asS'Esther Dyson'
p2213
(lp2214
S'PERSON'
p2215
aS'ORGANIZATION'
p2216
aS'ORGANIZATION:CORPORATION'
p2217
asS'emotional'
p2218
(lp2219
S'DISEASE'
p2220
asS'Personal'
p2221
(lp2222
S'ORGANIZATION'
p2223
aS'ORGANIZATION:CORPORATION'
p2224
asS'Even'
p2225
(lp2226
S'LANGUAGE'
p2227
asS'October 1987 stock market crash'
p2228
(lp2229
S'EVENT'
p2230
asS'Carson'
p2231
(lp2232
S'PERSON'
p2233
asS'promised'
p2234
(lp2235
S'PERSON'
p2236
asS'New York Times'
p2237
(lp2238
S'WORK_OF_ART:BOOK'
p2239
aS'ORGANIZATION'
p2240
aS'WORK_OF_ART'
p2241
aS'ORGANIZATION:CORPORATION'
p2242
asS'Mayer'
p2243
(lp2244
S'PERSON'
p2245
asS'National Day'
p2246
(lp2247
S'EVENT'
p2248
aS'EVENT:WAR'
p2249
asS'LTV'
p2250
(lp2251
S'ORGANIZATION'
p2252
aS'ORGANIZATION:CORPORATION'
p2253
asS'eerie'
p2254
(lp2255
S'WORK_OF_ART:BOOK'
p2256
aS'WORK_OF_ART'
p2257
asS'Tigrean'
p2258
(lp2259
S'LOCATION'
p2260
asS'First Boston Corp'
p2261
(lp2262
S'ORGANIZATION'
p2263
aS'ORGANIZATION:CORPORATION'
p2264
asS'Kennedy'
p2265
(lp2266
S'PERSON'
p2267
asS'Ann Wilson'
p2268
(lp2269
S'PERSON'
p2270
asS'senatorial'
p2271
(lp2272
S'PERSON'
p2273
aS'ORGANIZATION'
p2274
aS'ORGANIZATION:GOVERNMENT'
p2275
asS'Falls'
p2276
(lp2277
S'FACILITY:ATTRACTION'
p2278
aS'FACILITY'
p2279
asS'republic'
p2280
(lp2281
S'GPE'
p2282
aS'GPE:COUNTRY'
p2283
asS'Advisor'
p2284
(lp2285
S'PERSON'
p2286
asS'developers'
p2287
(lp2288
S'PERSON'
p2289
asS'shrink'
p2290
(lp2291
S'PERSON'
p2292
asS'brothers'
p2293
(lp2294
S'PERSON'
p2295
aS'ORGANIZATION'
p2296
asS'television network'
p2297
(lp2298
S'ORGANIZATION'
p2299
aS'ORGANIZATION:CORPORATION'
p2300
asS'Mikhail Gorbachev'
p2301
(lp2302
S'PERSON'
p2303
asS'football'
p2304
(lp2305
S'ORGANIZATION'
p2306
asS'Life'
p2307
(lp2308
S'WORK_OF_ART:BOOK'
p2309
aS'ORGANIZATION'
p2310
aS'WORK_OF_ART'
p2311
aS'ORGANIZATION:CORPORATION'
p2312
asS'fell'
p2313
(lp2314
S'EVENT'
p2315
aS'EVENT:WAR'
p2316
asS'No doubt'
p2317
(lp2318
S'PERSON'
p2319
aS'ORGANIZATION'
p2320
asS'Nixdorf'
p2321
(lp2322
S'ORGANIZATION'
p2323
aS'ORGANIZATION:CORPORATION'
p2324
asS'younger'
p2325
(lp2326
S'EVENT'
p2327
asS'Tiananmen Square'
p2328
(lp2329
S'EVENT'
p2330
aS'EVENT:WAR'
p2331
asS'assume'
p2332
(lp2333
S'PLANT'
p2334
aS'ANIMAL'
p2335
asS'painting'
p2336
(lp2337
S'PERSON'
p2338
asS'Charles'
p2339
(lp2340
S'PERSON'
p2341
asS'uncovered'
p2342
(lp2343
S'ORGANIZATION'
p2344
aS'ORGANIZATION:MUSEUM'
p2345
aS'FACILITY:ATTRACTION'
p2346
aS'FACILITY:BUILDING'
p2347
aS'FACILITY'
p2348
asS'Pittsburgh'
p2349
(lp2350
S'GPE'
p2351
aS'GPE:CITY'
p2352
asS'Second'
p2353
(lp2354
S'EVENT'
p2355
aS'EVENT:WAR'
p2356
asS'stripping'
p2357
(lp2358
S'PERSON'
p2359
asS'Kelley'
p2360
(lp2361
S'PERSON'
p2362
asS'restored'
p2363
(lp2364
S'EVENT'
p2365
asS'World Series'
p2366
(lp2367
S'EVENT'
p2368
asS'The Supreme Court'
p2369
(lp2370
S'ORGANIZATION'
p2371
aS'ORGANIZATION:GOVERNMENT'
p2372
asS'Ore.'
p2373
(lp2374
S'GPE:STATE_PROVINCE'
p2375
aS'GPE'
p2376
aS'LOCATION'
p2377
asS'coach'
p2378
(lp2379
S'PERSON'
p2380
asS'managed'
p2381
(lp2382
S'PERSON'
p2383
asS'global'
p2384
(lp2385
S'LOCATION'
p2386
asS'Glauber'
p2387
(lp2388
S'SUBSTANCE'
p2389
aS'SUBSTANCE:CHEMICAL'
p2390
asS'manager'
p2391
(lp2392
S'PERSON'
p2393
asS'manages'
p2394
(lp2395
S'PERSON'
p2396
asS'Hiram'
p2397
(lp2398
S'ORGANIZATION'
p2399
aS'ORGANIZATION:EDUCATIONAL'
p2400
aS'ORGANIZATION:CORPORATION'
p2401
asS'Indiana'
p2402
(lp2403
S'GPE:STATE_PROVINCE'
p2404
aS'GPE'
p2405
aS'LOCATION'
p2406
asS'Louisiana'
p2407
(lp2408
S'GPE'
p2409
aS'GPE:CITY'
p2410
asS'milk'
p2411
(lp2412
S'PRODUCT'
p2413
aS'SUBSTANCE'
p2414
aS'SUBSTANCE:FOOD'
p2415
asS'killings'
p2416
(lp2417
S'DISEASE'
p2418
asS'Columbia'
p2419
(lp2420
S'GPE'
p2421
aS'ORGANIZATION:CORPORATION'
p2422
aS'ORGANIZATION'
p2423
aS'GPE:CITY'
p2424
asS'Dillon Read'
p2425
(lp2426
S'ORGANIZATION'
p2427
aS'ORGANIZATION:CORPORATION'
p2428
asS'Salomon Brothers'
p2429
(lp2430
S'ORGANIZATION'
p2431
aS'ORGANIZATION:CORPORATION'
p2432
asS'Atlanta'
p2433
(lp2434
S'GPE'
p2435
aS'ORGANIZATION'
p2436
aS'GPE:CITY'
p2437
asS'veterans'
p2438
(lp2439
S'PERSON'
p2440
asS'Chemical Banking'
p2441
(lp2442
S'ORGANIZATION'
p2443
aS'ORGANIZATION:CORPORATION'
p2444
asS'Boone County'
p2445
(lp2446
S'LOCATION'
p2447
asS'adviser'
p2448
(lp2449
S'PERSON'
p2450
asS'Hargrave'
p2451
(lp2452
S'ORGANIZATION'
p2453
aS'ORGANIZATION:EDUCATIONAL'
p2454
aS'ORGANIZATION:CORPORATION'
p2455
asS'Laurie'
p2456
(lp2457
S'PERSON'
p2458
asS'Where'
p2459
(lp2460
S'WORK_OF_ART:BOOK'
p2461
aS'WORK_OF_ART'
p2462
aS'CONTACT_INFO:url'
p2463
aS'CONTACT_INFO'
p2464
asS'governments'
p2465
(lp2466
S'ORGANIZATION'
p2467
aS'ORGANIZATION:GOVERNMENT'
p2468
asS'Cubans'
p2469
(lp2470
S'GPE'
p2471
aS'GPE:CITY'
p2472
asS'presented'
p2473
(lp2474
S'PERSON'
p2475
asS'Global'
p2476
(lp2477
S'ORGANIZATION'
p2478
aS'ORGANIZATION:CORPORATION'
p2479
asS'gun'
p2480
(lp2481
S'PRODUCT'
p2482
aS'PRODUCT:WEAPON'
p2483
asS'gum'
p2484
(lp2485
S'PRODUCT'
p2486
asS'evades'
p2487
(lp2488
S'WORK_OF_ART'
p2489
asS'Fidelity'
p2490
(lp2491
S'ORGANIZATION'
p2492
aS'ORGANIZATION:CORPORATION'
p2493
asS'He'
p2494
(lp2495
S'SUBSTANCE:DRUG'
p2496
aS'PERSON'
p2497
aS'SUBSTANCE'
p2498
aS'SUBSTANCE:CHEMICAL'
p2499
asS'Hill Street Blues'
p2500
(lp2501
S'WORK_OF_ART'
p2502
asS'sweeten'
p2503
(lp2504
S'SUBSTANCE'
p2505
aS'SUBSTANCE:FOOD'
p2506
asS'attracting'
p2507
(lp2508
S'PERSON'
p2509
asS'pork'
p2510
(lp2511
S'PLANT'
p2512
aS'ANIMAL'
p2513
asS'unexpected'
p2514
(lp2515
S'WORK_OF_ART'
p2516
aS'WORK_OF_ART:SONG'
p2517
asS'Deloitte'
p2518
(lp2519
S'ORGANIZATION'
p2520
aS'ORGANIZATION:CORPORATION'
p2521
asS'general manager'
p2522
(lp2523
S'PERSON'
p2524
asS'Burlington'
p2525
(lp2526
S'GPE:CITY'
p2527
aS'GPE'
p2528
aS'ORGANIZATION'
p2529
aS'ORGANIZATION:CORPORATION'
p2530
asS'dried'
p2531
(lp2532
S'SUBSTANCE'
p2533
asS'malignant mesothelioma'
p2534
(lp2535
S'DISEASE'
p2536
asS'bacteria'
p2537
(lp2538
S'PLANT'
p2539
asS'Brady'
p2540
(lp2541
S'WORK_OF_ART'
p2542
asS'production unit'
p2543
(lp2544
S'PERSON'
p2545
asS'Finmeccanica'
p2546
(lp2547
S'ORGANIZATION'
p2548
aS'ORGANIZATION:CORPORATION'
p2549
asS'BOTH SIDES NOW'
p2550
(lp2551
S'WORK_OF_ART'
p2552
aS'WORK_OF_ART:SONG'
p2553
asS'Ford'
p2554
(lp2555
S'ORGANIZATION'
p2556
aS'ORGANIZATION:CORPORATION'
p2557
asS'Elizabeth Taylor'
p2558
(lp2559
S'PERSON'
p2560
asS'Florence Griffith-Joyner'
p2561
(lp2562
S'PERSON'
p2563
asS'falling'
p2564
(lp2565
S'EVENT'
p2566
aS'EVENT:WAR'
p2567
asS'ground'
p2568
(lp2569
S'SUBSTANCE'
p2570
asS'Hurricane Jerry'
p2571
(lp2572
S'EVENT:HURRICANE'
p2573
aS'EVENT'
p2574
asS'Md'
p2575
(lp2576
S'GPE:STATE_PROVINCE'
p2577
aS'GPE'
p2578
aS'LOCATION'
p2579
aS'ORGANIZATION'
p2580
aS'ORGANIZATION:CORPORATION'
p2581
asS'Troy Aikman'
p2582
(lp2583
S'PERSON'
p2584
asS'Darin'
p2585
(lp2586
S'PERSON'
p2587
asS'Mo'
p2588
(lp2589
S'SUBSTANCE:DRUG'
p2590
aS'SUBSTANCE'
p2591
aS'SUBSTANCE:CHEMICAL'
p2592
asS'Guarana'
p2593
(lp2594
S'PLANT'
p2595
aS'SUBSTANCE'
p2596
aS'PRODUCT'
p2597
aS'SUBSTANCE:FOOD'
p2598
asS'The British'
p2599
(lp2600
S'GPE'
p2601
aS'ORGANIZATION:GOVERNMENT'
p2602
aS'LOCATION'
p2603
aS'ORGANIZATION'
p2604
aS'GPE:COUNTRY'
p2605
asS'baseball'
p2606
(lp2607
S'ORGANIZATION'
p2608
asS'real estate developer'
p2609
(lp2610
S'PERSON'
p2611
asS'English'
p2612
(lp2613
S'GPE'
p2614
aS'LOCATION'
p2615
aS'GPE:COUNTRY'
p2616
asS'David'
p2617
(lp2618
S'PERSON'
p2619
asS'My'
p2620
(lp2621
S'ORGANIZATION'
p2622
aS'ORGANIZATION:CORPORATION'
p2623
aS'PERSON'
p2624
asS'Namibian'
p2625
(lp2626
S'GPE'
p2627
aS'GPE:COUNTRY'
p2628
asS'buck'
p2629
(lp2630
S'PLANT'
p2631
aS'ANIMAL'
p2632
asS'comptroller'
p2633
(lp2634
S'PERSON'
p2635
asS'Pfeiffer'
p2636
(lp2637
S'PERSON'
p2638
asS'Sobel'
p2639
(lp2640
S'PERSON'
p2641
asS'Lotus'
p2642
(lp2643
S'PERSON'
p2644
aS'ORGANIZATION'
p2645
aS'ORGANIZATION:CORPORATION'
p2646
asS'Freeze'
p2647
(lp2648
S'SUBSTANCE:DRUG'
p2649
aS'SUBSTANCE'
p2650
asS'High School'
p2651
(lp2652
S'PERSON'
p2653
asS'emergency care'
p2654
(lp2655
S'ORGANIZATION'
p2656
aS'ORGANIZATION:HOSPITAL'
p2657
aS'FACILITY:BUILDING'
p2658
aS'FACILITY'
p2659
asS'MP'
p2660
(lp2661
S'ORGANIZATION'
p2662
aS'ORGANIZATION:GOVERNMENT'
p2663
asS'Technology'
p2664
(lp2665
S'PERSON'
p2666
asS'extra'
p2667
(lp2668
S'PERSON'
p2669
asS'Justice'
p2670
(lp2671
S'ORGANIZATION'
p2672
aS'ORGANIZATION:GOVERNMENT'
p2673
asS'Denton'
p2674
(lp2675
S'GPE'
p2676
aS'GPE:CITY'
p2677
asS'Investment Bank'
p2678
(lp2679
S'PERSON'
p2680
asS'rash'
p2681
(lp2682
S'DISEASE'
p2683
asS'Alberta'
p2684
(lp2685
S'LOCATION'
p2686
asS'Lawmakers'
p2687
(lp2688
S'PERSON'
p2689
asS'rarely'
p2690
(lp2691
S'WORK_OF_ART'
p2692
asS'Davidson'
p2693
(lp2694
S'LOCATION'
p2695
asS'Appalachian Power'
p2696
(lp2697
S'ORGANIZATION'
p2698
aS'ORGANIZATION:CORPORATION'
p2699
asS'Frawley'
p2700
(lp2701
S'PERSON'
p2702
asS'Australia'
p2703
(lp2704
S'GPE'
p2705
aS'LOCATION'
p2706
aS'GPE:COUNTRY'
p2707
asS'August'
p2708
(lp2709
S'EVENT'
p2710
asS'Beecham'
p2711
(lp2712
S'ORGANIZATION'
p2713
aS'ORGANIZATION:CORPORATION'
p2714
asS'head coach'
p2715
(lp2716
S'PERSON'
p2717
asS'Visa'
p2718
(lp2719
S'ORGANIZATION'
p2720
aS'ORGANIZATION:CORPORATION'
p2721
asS'films'
p2722
(lp2723
S'WORK_OF_ART'
p2724
asS'corporate counsel'
p2725
(lp2726
S'PERSON'
p2727
asS'cited'
p2728
(lp2729
S'ORGANIZATION'
p2730
aS'EVENT'
p2731
aS'ORGANIZATION:EDUCATIONAL'
p2732
asS'prosecutor'
p2733
(lp2734
S'PERSON'
p2735
asS'McClatchy'
p2736
(lp2737
S'ORGANIZATION'
p2738
aS'ORGANIZATION:CORPORATION'
p2739
aS'PERSON'
p2740
asS'commissioner'
p2741
(lp2742
S'ORGANIZATION'
p2743
aS'ORGANIZATION:CORPORATION'
p2744
aS'PERSON'
p2745
asS'October'
p2746
(lp2747
S'EVENT'
p2748
aS'EVENT:WAR'
p2749
asS'These'
p2750
(lp2751
S'PERSON'
p2752
asS'chocolate'
p2753
(lp2754
S'PRODUCT'
p2755
aS'SUBSTANCE'
p2756
aS'SUBSTANCE:FOOD'
p2757
asS'Penn Central'
p2758
(lp2759
S'ORGANIZATION'
p2760
aS'ORGANIZATION:CORPORATION'
p2761
asS'Monterey Park'
p2762
(lp2763
S'GPE'
p2764
aS'GPE:CITY'
p2765
asS'capturing'
p2766
(lp2767
S'EVENT'
p2768
aS'EVENT:WAR'
p2769
asS'Scania'
p2770
(lp2771
S'ORGANIZATION'
p2772
aS'ORGANIZATION:CORPORATION'
p2773
asS'German'
p2774
(lp2775
S'GPE'
p2776
aS'GPE:CITY'
p2777
asS'originally'
p2778
(lp2779
S'LANGUAGE'
p2780
asS'facilitating'
p2781
(lp2782
S'PERSON'
p2783
asS'Lebanon'
p2784
(lp2785
S'GPE'
p2786
aS'GPE:COUNTRY'
p2787
asS'incidents'
p2788
(lp2789
S'EVENT'
p2790
aS'EVENT:WAR'
p2791
asS'Haile Selassie'
p2792
(lp2793
S'PERSON'
p2794
asS'movie producers'
p2795
(lp2796
S'PERSON'
p2797
asS'Asian'
p2798
(lp2799
S'LOCATION:REGION'
p2800
aS'LOCATION'
p2801
aS'LOCATION:CONTINENT'
p2802
asS'Newsweek'
p2803
(lp2804
S'WORK_OF_ART:BOOK'
p2805
aS'ORGANIZATION'
p2806
aS'WORK_OF_ART'
p2807
aS'ORGANIZATION:CORPORATION'
p2808
asS'glory days'
p2809
(lp2810
S'WORK_OF_ART'
p2811
aS'WORK_OF_ART:SONG'
p2812
asS'champagne bottles'
p2813
(lp2814
S'PRODUCT'
p2815
aS'SUBSTANCE'
p2816
aS'SUBSTANCE:FOOD'
p2817
asS'crazy'
p2818
(lp2819
S'DISEASE'
p2820
asS'performer'
p2821
(lp2822
S'PERSON'
p2823
asS'Federal'
p2824
(lp2825
S'PERSON'
p2826
aS'ORGANIZATION'
p2827
aS'ORGANIZATION:GOVERNMENT'
p2828
asS'Soviet national'
p2829
(lp2830
S'EVENT'
p2831
asS'dropped'
p2832
(lp2833
S'EVENT'
p2834
aS'EVENT:WAR'
p2835
asS'Dutch'
p2836
(lp2837
S'GPE'
p2838
aS'LOCATION'
p2839
aS'GPE:COUNTRY'
p2840
asS'Red Square'
p2841
(lp2842
S'FACILITY:ATTRACTION'
p2843
aS'FACILITY'
p2844
asS'chic'
p2845
(lp2846
S'PERSON'
p2847
aS'ORGANIZATION'
p2848
asS'financial economist'
p2849
(lp2850
S'PERSON'
p2851
asS'clothing'
p2852
(lp2853
S'SUBSTANCE'
p2854
asS'marketing services'
p2855
(lp2856
S'PERSON'
p2857
asS'Finnish'
p2858
(lp2859
S'GPE'
p2860
aS'LOCATION'
p2861
aS'GPE:COUNTRY'
p2862
asS'Oil Pollution Act'
p2863
(lp2864
S'LAW'
p2865
asS'Dataproducts'
p2866
(lp2867
S'ORGANIZATION'
p2868
aS'ORGANIZATION:CORPORATION'
p2869
asS'Who'
p2870
(lp2871
S'PERSON'
p2872
aS'ORGANIZATION'
p2873
asS'freezes'
p2874
(lp2875
S'SUBSTANCE:DRUG'
p2876
aS'SUBSTANCE'
p2877
asS'write'
p2878
(lp2879
S'PERSON'
p2880
asS'Lublin'
p2881
(lp2882
S'GPE'
p2883
aS'LOCATION'
p2884
aS'GPE:CITY'
p2885
asS'Louis'
p2886
(lp2887
S'PERSON'
p2888
asS'critics'
p2889
(lp2890
S'PERSON'
p2891
asS'investment banker'
p2892
(lp2893
S'PERSON'
p2894
asS'European Investment Bank'
p2895
(lp2896
S'ORGANIZATION'
p2897
aS'ORGANIZATION:CORPORATION'
p2898
aS'PERSON'
p2899
asS'Lawson'
p2900
(lp2901
S'ORGANIZATION'
p2902
aS'PERSON'
p2903
aS'ORGANIZATION:CORPORATION'
p2904
asS'produce'
p2905
(lp2906
S'PERSON'
p2907
asS'Lufkin'
p2908
(lp2909
S'GPE'
p2910
aS'GPE:CITY'
p2911
asS'guys'
p2912
(lp2913
S'PERSON'
p2914
asS'man'
p2915
(lp2916
S'PERSON'
p2917
aS'PLANT'
p2918
asS'Series'
p2919
(lp2920
S'EVENT'
p2921
asS'truck'
p2922
(lp2923
S'PRODUCT:VEHICLE'
p2924
aS'PRODUCT'
p2925
asS'wolves'
p2926
(lp2927
S'PLANT'
p2928
aS'ANIMAL'
p2929
asS'talk'
p2930
(lp2931
S'PERSON'
p2932
asS'Northeast Utilities'
p2933
(lp2934
S'ORGANIZATION'
p2935
aS'ORGANIZATION:CORPORATION'
p2936
asS'Mississippi'
p2937
(lp2938
S'GPE:STATE_PROVINCE'
p2939
aS'GPE'
p2940
aS'LOCATION'
p2941
asS'serving'
p2942
(lp2943
S'PERSON'
p2944
asS'The team'
p2945
(lp2946
S'ORGANIZATION'
p2947
asS'gradual'
p2948
(lp2949
S'WORK_OF_ART:BOOK'
p2950
aS'WORK_OF_ART'
p2951
asS'shaky'
p2952
(lp2953
S'PERSON'
p2954
asS'San Francisco Mayor'
p2955
(lp2956
S'PERSON'
p2957
asS'RJR Nabisco'
p2958
(lp2959
S'ORGANIZATION'
p2960
aS'ORGANIZATION:CORPORATION'
p2961
asS'ended'
p2962
(lp2963
S'EVENT'
p2964
aS'EVENT:WAR'
p2965
asS'Morgan Guaranty Trust'
p2966
(lp2967
S'ORGANIZATION'
p2968
aS'ORGANIZATION:CORPORATION'
p2969
asS'Coconuts'
p2970
(lp2971
S'PLANT'
p2972
aS'SUBSTANCE'
p2973
aS'PRODUCT'
p2974
aS'SUBSTANCE:FOOD'
p2975
asS'statistical'
p2976
(lp2977
S'PERSON'
p2978
asS'cuts'
p2979
(lp2980
S'PERSON'
p2981
asS'managers'
p2982
(lp2983
S'PERSON'
p2984
asS'White'
p2985
(lp2986
S'PERSON'
p2987
asS'C-SPAN'
p2988
(lp2989
S'ORGANIZATION'
p2990
aS'ORGANIZATION:CORPORATION'
p2991
aS'PERSON'
p2992
asS'Golden West Financial'
p2993
(lp2994
S'ORGANIZATION'
p2995
aS'ORGANIZATION:CORPORATION'
p2996
asS'Saudi Arabia'
p2997
(lp2998
S'GPE'
p2999
aS'GPE:COUNTRY'
p3000
aS'ORGANIZATION'
p3001
aS'ORGANIZATION:GOVERNMENT'
p3002
asS'group'
p3003
(lp3004
S'ORGANIZATION'
p3005
aS'ORGANIZATION:GOVERNMENT'
p3006
asS'Big Blue'
p3007
(lp3008
S'PERSON'
p3009
aS'ORGANIZATION'
p3010
aS'ORGANIZATION:CORPORATION'
p3011
asS'Mercury Sable'
p3012
(lp3013
S'PRODUCT:VEHICLE'
p3014
aS'PRODUCT'
p3015
asS'presence'
p3016
(lp3017
S'EVENT'
p3018
aS'EVENT:WAR'
p3019
asS'troubles'
p3020
(lp3021
S'EVENT'
p3022
aS'EVENT:WAR'
p3023
asS'Nationwide Anglia Building Society'
p3024
(lp3025
S'ORGANIZATION'
p3026
aS'ORGANIZATION:CORPORATION'
p3027
asS'James Patterson'
p3028
(lp3029
S'PERSON'
p3030
asS'Kid Creole'
p3031
(lp3032
S'PERSON'
p3033
aS'ORGANIZATION'
p3034
asS'West Virginia'
p3035
(lp3036
S'GPE:STATE_PROVINCE'
p3037
aS'GPE'
p3038
aS'LOCATION'
p3039
asS'Hartford'
p3040
(lp3041
S'GPE'
p3042
aS'GPE:CITY'
p3043
asS'Italian'
p3044
(lp3045
S'GPE'
p3046
aS'LOCATION:REGION'
p3047
aS'LOCATION'
p3048
aS'GPE:COUNTRY'
p3049
asS'no-brainer'
p3050
(lp3051
S'WORK_OF_ART:BOOK'
p3052
aS'WORK_OF_ART'
p3053
asS'World War I'
p3054
(lp3055
S'EVENT'
p3056
aS'EVENT:WAR'
p3057
asS'One week'
p3058
(lp3059
S'WORK_OF_ART'
p3060
aS'WORK_OF_ART:SONG'
p3061
asS'sweetened'
p3062
(lp3063
S'SUBSTANCE'
p3064
aS'SUBSTANCE:FOOD'
p3065
asS'nation'
p3066
(lp3067
S'GPE'
p3068
aS'LOCATION:REGION'
p3069
aS'LOCATION'
p3070
aS'GPE:COUNTRY'
p3071
asS'Rome'
p3072
(lp3073
S'GPE'
p3074
aS'LOCATION'
p3075
aS'GPE:CITY'
p3076
asS'She'
p3077
(lp3078
S'WORK_OF_ART:BOOK'
p3079
aS'WORK_OF_ART'
p3080
asS'Kemp'
p3081
(lp3082
S'PERSON'
p3083
asS'Webster'
p3084
(lp3085
S'LOCATION'
p3086
asS'Pete Rozelle'
p3087
(lp3088
S'PERSON'
p3089
asS'developments'
p3090
(lp3091
S'PERSON'
p3092
asS'enacted'
p3093
(lp3094
S'PERSON'
p3095
asS'term'
p3096
(lp3097
S'DISEASE'
p3098
asS'The Soviets'
p3099
(lp3100
S'ORGANIZATION'
p3101
aS'ORGANIZATION:GOVERNMENT'
p3102
asS'attorneys'
p3103
(lp3104
S'PERSON'
p3105
asS'advent'
p3106
(lp3107
S'EVENT'
p3108
asS'Seville'
p3109
(lp3110
S'GPE'
p3111
aS'LOCATION'
p3112
aS'GPE:CITY'
p3113
asS'Sullivan'
p3114
(lp3115
S'PERSON'
p3116
asS'Treasury Secretary'
p3117
(lp3118
S'PERSON'
p3119
aS'ORGANIZATION'
p3120
aS'ORGANIZATION:GOVERNMENT'
p3121
asS'publishing company'
p3122
(lp3123
S'PERSON'
p3124
asS'Stanley'
p3125
(lp3126
S'GPE'
p3127
aS'PERSON'
p3128
aS'GPE:CITY'
p3129
asS'West German'
p3130
(lp3131
S'GPE'
p3132
aS'LOCATION'
p3133
aS'GPE:COUNTRY'
p3134
asS'law offices'
p3135
(lp3136
S'PERSON'
p3137
asS'plant'
p3138
(lp3139
S'PLANT'
p3140
aS'SUBSTANCE'
p3141
asS'National Council'
p3142
(lp3143
S'ORGANIZATION'
p3144
aS'ORGANIZATION:CORPORATION'
p3145
asS'Peru'
p3146
(lp3147
S'GPE'
p3148
aS'GPE:COUNTRY'
p3149
aS'PERSON'
p3150
asS'Garth'
p3151
(lp3152
S'PERSON'
p3153
asS'assumption'
p3154
(lp3155
S'CONTACT_INFO:url'
p3156
aS'CONTACT_INFO'
p3157
asS'Knife'
p3158
(lp3159
S'PRODUCT'
p3160
aS'PRODUCT:WEAPON'
p3161
asS'Wheat'
p3162
(lp3163
S'PLANT'
p3164
aS'SUBSTANCE'
p3165
aS'SUBSTANCE:FOOD'
p3166
asS'District Judge'
p3167
(lp3168
S'ORGANIZATION'
p3169
aS'ORGANIZATION:GOVERNMENT'
p3170
asS'RTC'
p3171
(lp3172
S'ORGANIZATION'
p3173
aS'ORGANIZATION:CORPORATION'
p3174
asS'Michigan'
p3175
(lp3176
S'GPE:STATE_PROVINCE'
p3177
aS'GPE'
p3178
aS'LOCATION'
p3179
asS'air force'
p3180
(lp3181
S'ORGANIZATION'
p3182
aS'ORGANIZATION:CORPORATION'
p3183
aS'ORGANIZATION:GOVERNMENT'
p3184
asS'Bobby Darin'
p3185
(lp3186
S'PERSON'
p3187
asS'federal government'
p3188
(lp3189
S'PERSON'
p3190
aS'ORGANIZATION'
p3191
aS'ORGANIZATION:GOVERNMENT'
p3192
asS'industry analysts'
p3193
(lp3194
S'PERSON'
p3195
asS'backup singer'
p3196
(lp3197
S'PERSON'
p3198
asS'Manchester'
p3199
(lp3200
S'GPE'
p3201
aS'GPE:CITY'
p3202
asS'Bloomingdale'
p3203
(lp3204
S'ORGANIZATION'
p3205
aS'ORGANIZATION:CORPORATION'
p3206
asS'Commerce'
p3207
(lp3208
S'ORGANIZATION'
p3209
aS'ORGANIZATION:GOVERNMENT'
p3210
asS'Soichiro Honda'
p3211
(lp3212
S'PERSON'
p3213
asS'Westpac'
p3214
(lp3215
S'ORGANIZATION'
p3216
aS'ORGANIZATION:CORPORATION'
p3217
asS'seventh'
p3218
(lp3219
S'EVENT'
p3220
asS'unwanted'
p3221
(lp3222
S'WORK_OF_ART'
p3223
aS'WORK_OF_ART:SONG'
p3224
asS'Hewlett-Packard Co.'
p3225
(lp3226
S'ORGANIZATION'
p3227
aS'ORGANIZATION:CORPORATION'
p3228
aS'PERSON'
p3229
asS'securities firm'
p3230
(lp3231
S'PERSON'
p3232
asS'Already'
p3233
(lp3234
S'PERSON'
p3235
asS'South Africa'
p3236
(lp3237
S'GPE'
p3238
aS'EVENT'
p3239
aS'GPE:COUNTRY'
p3240
asS'Money'
p3241
(lp3242
S'WORK_OF_ART'
p3243
aS'WORK_OF_ART:SONG'
p3244
asS'transition'
p3245
(lp3246
S'WORK_OF_ART:BOOK'
p3247
aS'WORK_OF_ART'
p3248
asS'Frank Gaffney'
p3249
(lp3250
S'PERSON'
p3251
asS'defense secretary'
p3252
(lp3253
S'PERSON'
p3254
asS'place'
p3255
(lp3256
S'WORK_OF_ART:BOOK'
p3257
aS'WORK_OF_ART'
p3258
aS'CONTACT_INFO:url'
p3259
aS'CONTACT_INFO'
p3260
asS'Adlai Stevenson'
p3261
(lp3262
S'PERSON'
p3263
asS'Federal Deposit Insurance Corp'
p3264
(lp3265
S'ORGANIZATION'
p3266
aS'ORGANIZATION:GOVERNMENT'
p3267
asS'Brazil'
p3268
(lp3269
S'GPE'
p3270
aS'LOCATION:REGION'
p3271
aS'LOCATION'
p3272
aS'GPE:COUNTRY'
p3273
asS'Norwalk'
p3274
(lp3275
S'GPE'
p3276
aS'GPE:CITY'
p3277
asS'Rainer Fassbinder'
p3278
(lp3279
S'PERSON'
p3280
asS'Ortiz'
p3281
(lp3282
S'PERSON'
p3283
asS'Landry'
p3284
(lp3285
S'PERSON'
p3286
asS'There'
p3287
(lp3288
S'GPE'
p3289
aS'GPE:COUNTRY'
p3290
asS'Royal'
p3291
(lp3292
S'PERSON'
p3293
aS'ORGANIZATION'
p3294
aS'ORGANIZATION:GOVERNMENT'
p3295
asS'Great Depression'
p3296
(lp3297
S'EVENT'
p3298
asS'Asia'
p3299
(lp3300
S'LOCATION:REGION'
p3301
aS'LOCATION'
p3302
aS'LOCATION:CONTINENT'
p3303
asS'U.S. government'
p3304
(lp3305
S'PERSON'
p3306
aS'ORGANIZATION'
p3307
aS'ORGANIZATION:GOVERNMENT'
p3308
asS'Kelly'
p3309
(lp3310
S'PERSON'
p3311
asS'500 miles'
p3312
(lp3313
S'WORK_OF_ART'
p3314
aS'WORK_OF_ART:SONG'
p3315
asS'The strike'
p3316
(lp3317
S'EVENT'
p3318
aS'EVENT:WAR'
p3319
asS'Stars'
p3320
(lp3321
S'ORGANIZATION'
p3322
asS'Medicine'
p3323
(lp3324
S'PERSON'
p3325
asS'sounds'
p3326
(lp3327
S'PERSON'
p3328
asS'engineer'
p3329
(lp3330
S'PERSON'
p3331
asS'Diamond'
p3332
(lp3333
S'SUBSTANCE'
p3334
asS'officials'
p3335
(lp3336
S'PERSON'
p3337
asS'Monday'
p3338
(lp3339
S'WORK_OF_ART'
p3340
asS'New England'
p3341
(lp3342
S'LOCATION:REGION'
p3343
aS'LOCATION'
p3344
asS'Commercial'
p3345
(lp3346
S'PERSON'
p3347
asS'insulins'
p3348
(lp3349
S'SUBSTANCE:DRUG'
p3350
aS'SUBSTANCE'
p3351
asS'plastic'
p3352
(lp3353
S'SUBSTANCE'
p3354
asS'free-lance'
p3355
(lp3356
S'PERSON'
p3357
asS'victorious'
p3358
(lp3359
S'EVENT'
p3360
asS'draft'
p3361
(lp3362
S'EVENT'
p3363
asS'Hurricane Hugo'
p3364
(lp3365
S'EVENT:HURRICANE'
p3366
aS'EVENT'
p3367
asS'season'
p3368
(lp3369
S'EVENT'
p3370
asS'Shaker Heights'
p3371
(lp3372
S'GPE'
p3373
aS'GPE:CITY'
p3374
asS'1970s energy crisis'
p3375
(lp3376
S'EVENT'
p3377
asS'reclaims'
p3378
(lp3379
S'EVENT'
p3380
aS'EVENT:WAR'
p3381
asS'formaldehyde'
p3382
(lp3383
S'SUBSTANCE:DRUG'
p3384
aS'SUBSTANCE'
p3385
aS'SUBSTANCE:CHEMICAL'
p3386
asS'herds'
p3387
(lp3388
S'PLANT'
p3389
aS'ANIMAL'
p3390
asS'Kurt'
p3391
(lp3392
S'PERSON'
p3393
asS'representing'
p3394
(lp3395
S'PERSON'
p3396
asS'Carney'
p3397
(lp3398
S'PERSON'
p3399
asS'wide'
p3400
(lp3401
S'DISEASE'
p3402
asS'television'
p3403
(lp3404
S'WORK_OF_ART'
p3405
asS'Colorado'
p3406
(lp3407
S'GPE:STATE_PROVINCE'
p3408
aS'GPE'
p3409
aS'LOCATION'
p3410
asS'Concord'
p3411
(lp3412
S'GPE'
p3413
aS'GPE:CITY'
p3414
asS'depressed'
p3415
(lp3416
S'DISEASE'
p3417
asS'Mexico'
p3418
(lp3419
S'GPE'
p3420
aS'LOCATION'
p3421
aS'GPE:COUNTRY'
p3422
asS'Sears'
p3423
(lp3424
S'ORGANIZATION'
p3425
aS'ORGANIZATION:CORPORATION'
p3426
aS'PERSON'
p3427
asS'future'
p3428
(lp3429
S'WORK_OF_ART:BOOK'
p3430
aS'WORK_OF_ART'
p3431
aS'CONTACT_INFO:url'
p3432
aS'CONTACT_INFO'
p3433
asS'political economy'
p3434
(lp3435
S'ORGANIZATION'
p3436
aS'ORGANIZATION:EDUCATIONAL'
p3437
asS'apples'
p3438
(lp3439
S'PRODUCT'
p3440
aS'SUBSTANCE'
p3441
aS'SUBSTANCE:FOOD'
p3442
asS'Nicaragua'
p3443
(lp3444
S'GPE'
p3445
aS'LOCATION'
p3446
aS'GPE:COUNTRY'
p3447
asS'ACCO'
p3448
(lp3449
S'GPE'
p3450
aS'GPE:CITY'
p3451
asS'Court'
p3452
(lp3453
S'ORGANIZATION'
p3454
aS'ORGANIZATION:GOVERNMENT'
p3455
asS'Republican Party'
p3456
(lp3457
S'ORGANIZATION:POLITICAL'
p3458
aS'ORGANIZATION'
p3459
aS'EVENT'
p3460
asS'Philadelphia'
p3461
(lp3462
S'GPE'
p3463
aS'LOCATION'
p3464
aS'GPE:CITY'
p3465
asS'Call'
p3466
(lp3467
S'PERSON'
p3468
aS'ORGANIZATION'
p3469
asS'Bainbridge Island'
p3470
(lp3471
S'GPE'
p3472
aS'GPE:CITY'
p3473
asS'tuxedos'
p3474
(lp3475
S'ORGANIZATION'
p3476
aS'ORGANIZATION:CORPORATION'
p3477
asS'horsepower'
p3478
(lp3479
S'ORGANIZATION'
p3480
aS'ORGANIZATION:CORPORATION'
p3481
aS'PERSON'
p3482
asS'national security adviser'
p3483
(lp3484
S'PERSON'
p3485
asS'Idaho'
p3486
(lp3487
S'GPE:STATE_PROVINCE'
p3488
aS'GPE'
p3489
aS'LOCATION'
p3490
asS'veteran'
p3491
(lp3492
S'PERSON'
p3493
asS'Federal Tort Claims Act'
p3494
(lp3495
S'LAW'
p3496
asS'shocked'
p3497
(lp3498
S'DISEASE'
p3499
asS'shocker'
p3500
(lp3501
S'WORK_OF_ART'
p3502
asS'high-technology'
p3503
(lp3504
S'PERSON'
p3505
asS'Hall'
p3506
(lp3507
S'PERSON'
p3508
asS'urge'
p3509
(lp3510
S'PERSON'
p3511
aS'ORGANIZATION'
p3512
asS'printer'
p3513
(lp3514
S'PERSON'
p3515
asS'pain'
p3516
(lp3517
S'DISEASE'
p3518
asS'Cornell University'
p3519
(lp3520
S'ORGANIZATION'
p3521
aS'ORGANIZATION:CORPORATION'
p3522
aS'ORGANIZATION:EDUCATIONAL'
p3523
aS'PERSON'
p3524
asS'black Africa'
p3525
(lp3526
S'LOCATION:REGION'
p3527
aS'LOCATION'
p3528
asS'falls'
p3529
(lp3530
S'FACILITY:ATTRACTION'
p3531
aS'FACILITY'
p3532
asS'standard-bearer'
p3533
(lp3534
S'PERSON'
p3535
asS'Ferranti'
p3536
(lp3537
S'ORGANIZATION'
p3538
aS'ORGANIZATION:CORPORATION'
p3539
asS'Menomonee Falls'
p3540
(lp3541
S'GPE'
p3542
aS'GPE:CITY'
p3543
asS'Iowa'
p3544
(lp3545
S'GPE:STATE_PROVINCE'
p3546
aS'GPE'
p3547
aS'LOCATION'
p3548
asS'Paul Allen'
p3549
(lp3550
S'PERSON'
p3551
asS'GOP'
p3552
(lp3553
S'ORGANIZATION:POLITICAL'
p3554
aS'ORGANIZATION'
p3555
aS'EVENT'
p3556
asS'operate'
p3557
(lp3558
S'SUBSTANCE:DRUG'
p3559
aS'SUBSTANCE'
p3560
asS'N.H.'
p3561
(lp3562
S'GPE:STATE_PROVINCE'
p3563
aS'GPE'
p3564
aS'LOCATION'
p3565
aS'PERSON'
p3566
asS'sale'
p3567
(lp3568
S'PERSON'
p3569
asS'managing'
p3570
(lp3571
S'PERSON'
p3572
asS'senior'
p3573
(lp3574
S'PERSON'
p3575
asS'salt'
p3576
(lp3577
S'SUBSTANCE'
p3578
aS'SUBSTANCE:FOOD'
p3579
asS'Fifth'
p3580
(lp3581
S'LAW'
p3582
aS'EVENT'
p3583
asS'lows'
p3584
(lp3585
S'PLANT'
p3586
aS'ANIMAL'
p3587
asS'Northeast'
p3588
(lp3589
S'LOCATION:REGION'
p3590
aS'LOCATION'
p3591
asS'McDonnell Douglas'
p3592
(lp3593
S'ORGANIZATION'
p3594
aS'ORGANIZATION:CORPORATION'
p3595
asS'Edward Koch'
p3596
(lp3597
S'PERSON'
p3598
asS'Ethiopia'
p3599
(lp3600
S'GPE'
p3601
aS'GPE:COUNTRY'
p3602
asS'Reuters'
p3603
(lp3604
S'PERSON'
p3605
aS'ORGANIZATION'
p3606
aS'ORGANIZATION:CORPORATION'
p3607
asS'Kent'
p3608
(lp3609
S'LOCATION'
p3610
asS'Stephen'
p3611
(lp3612
S'PERSON'
p3613
asS'Herschel Walker'
p3614
(lp3615
S'PERSON'
p3616
asS'Publishers'
p3617
(lp3618
S'PERSON'
p3619
asS'We'
p3620
(lp3621
S'GPE:STATE_PROVINCE'
p3622
aS'GPE'
p3623
aS'LOCATION'
p3624
aS'GPE:COUNTRY'
p3625
asS'King Solomon'
p3626
(lp3627
S'PERSON'
p3628
asS'Sacramento'
p3629
(lp3630
S'GPE'
p3631
aS'GPE:CITY'
p3632
asS'President Reagan'
p3633
(lp3634
S'PERSON'
p3635
asS'wood'
p3636
(lp3637
S'SUBSTANCE'
p3638
asS'Yuri'
p3639
(lp3640
S'PERSON'
p3641
asS'treasury'
p3642
(lp3643
S'ORGANIZATION'
p3644
aS'ORGANIZATION:GOVERNMENT'
p3645
asS'Trade Center'
p3646
(lp3647
S'FACILITY:BUILDING'
p3648
aS'FACILITY'
p3649
asS'congressional'
p3650
(lp3651
S'PERSON'
p3652
aS'ORGANIZATION'
p3653
aS'ORGANIZATION:GOVERNMENT'
p3654
asS'dispute'
p3655
(lp3656
S'EVENT'
p3657
asS'muni'
p3658
(lp3659
S'PERSON'
p3660
asS'assistant'
p3661
(lp3662
S'PERSON'
p3663
asS'Urban Land Institute'
p3664
(lp3665
S'ORGANIZATION'
p3666
aS'ORGANIZATION:CORPORATION'
p3667
asS'North Western'
p3668
(lp3669
S'LOCATION'
p3670
asS'McClatchy Newspapers'
p3671
(lp3672
S'ORGANIZATION'
p3673
aS'ORGANIZATION:CORPORATION'
p3674
aS'PERSON'
p3675
asS'Jefferson City'
p3676
(lp3677
S'GPE'
p3678
aS'GPE:CITY'
p3679
asS'secondary'
p3680
(lp3681
S'PERSON'
p3682
asS'reading'
p3683
(lp3684
S'DISEASE'
p3685
asS'television stations'
p3686
(lp3687
S'WORK_OF_ART'
p3688
asS'aluminum'
p3689
(lp3690
S'SUBSTANCE:DRUG'
p3691
aS'SUBSTANCE'
p3692
aS'SUBSTANCE:CHEMICAL'
p3693
asS'artist'
p3694
(lp3695
S'PERSON'
p3696
asS'sexually transmitted diseases'
p3697
(lp3698
S'DISEASE'
p3699
asS'keyed'
p3700
(lp3701
S'SUBSTANCE'
p3702
asS'miles'
p3703
(lp3704
S'PERSON'
p3705
asS'These days'
p3706
(lp3707
S'WORK_OF_ART'
p3708
aS'WORK_OF_ART:SONG'
p3709
asS'Atlanta Falcons'
p3710
(lp3711
S'ORGANIZATION'
p3712
asS'Education'
p3713
(lp3714
S'ORGANIZATION'
p3715
aS'ORGANIZATION:GOVERNMENT'
p3716
asS'Pawtucket'
p3717
(lp3718
S'GPE'
p3719
aS'GPE:CITY'
p3720
asS'Rockford'
p3721
(lp3722
S'GPE'
p3723
aS'GPE:CITY'
p3724
asS'Francis Fukuyama'
p3725
(lp3726
S'PERSON'
p3727
asS'Banque Nationale de Paris'
p3728
(lp3729
S'ORGANIZATION'
p3730
aS'ORGANIZATION:CORPORATION'
p3731
asS'drug war'
p3732
(lp3733
S'EVENT'
p3734
aS'EVENT:WAR'
p3735
asS'seat'
p3736
(lp3737
S'ORGANIZATION'
p3738
aS'ORGANIZATION:GOVERNMENT'
p3739
asS'Finks'
p3740
(lp3741
S'PERSON'
p3742
asS'successive'
p3743
(lp3744
S'EVENT'
p3745
asS'Clintonville'
p3746
(lp3747
S'GPE'
p3748
aS'GPE:CITY'
p3749
asS'the class'
p3750
(lp3751
S'WORK_OF_ART'
p3752
asS'Wham'
p3753
(lp3754
S'PERSON'
p3755
aS'ORGANIZATION'
p3756
asS'General Assembly'
p3757
(lp3758
S'PERSON'
p3759
asS'federal'
p3760
(lp3761
S'PERSON'
p3762
aS'ORGANIZATION'
p3763
aS'ORGANIZATION:GOVERNMENT'
p3764
asS'representatives'
p3765
(lp3766
S'ORGANIZATION'
p3767
aS'ORGANIZATION:GOVERNMENT'
p3768
asS'Broken Hill'
p3769
(lp3770
S'ORGANIZATION'
p3771
aS'ORGANIZATION:CORPORATION'
p3772
asS'Vanguard Group'
p3773
(lp3774
S'ORGANIZATION'
p3775
aS'ORGANIZATION:CORPORATION'
p3776
asS'Texas'
p3777
(lp3778
S'GPE:STATE_PROVINCE'
p3779
aS'GPE'
p3780
aS'LOCATION'
p3781
asS'diamonds'
p3782
(lp3783
S'SUBSTANCE'
p3784
asS'Mitsubishi'
p3785
(lp3786
S'ORGANIZATION'
p3787
aS'ORGANIZATION:CORPORATION'
p3788
asS'U.S.'
p3789
(lp3790
S'GPE:COUNTRY'
p3791
aS'GPE'
p3792
aS'ORGANIZATION:GOVERNMENT'
p3793
aS'PERSON'
p3794
aS'LOCATION'
p3795
aS'ORGANIZATION'
p3796
asS'Henry Ford'
p3797
(lp3798
S'ORGANIZATION'
p3799
aS'ORGANIZATION:CORPORATION'
p3800
asS'Johnson'
p3801
(lp3802
S'PERSON'
p3803
asS'screen'
p3804
(lp3805
S'WORK_OF_ART'
p3806
asS'killing'
p3807
(lp3808
S'DISEASE'
p3809
asS'executive director'
p3810
(lp3811
S'PERSON'
p3812
asS'British unit'
p3813
(lp3814
S'PERSON'
p3815
aS'ORGANIZATION'
p3816
aS'ORGANIZATION:GOVERNMENT'
p3817
asS'article'
p3818
(lp3819
S'PERSON'
p3820
asS'Freddie Mac'
p3821
(lp3822
S'ORGANIZATION'
p3823
aS'ORGANIZATION:CORPORATION'
p3824
asS'Lonesome Dove'
p3825
(lp3826
S'WORK_OF_ART'
p3827
asS'hypoglycemic'
p3828
(lp3829
S'DISEASE'
p3830
asS'hypoglycemia'
p3831
(lp3832
S'DISEASE'
p3833
asS'Northrop'
p3834
(lp3835
S'ORGANIZATION'
p3836
aS'ORGANIZATION:CORPORATION'
p3837
asS'Morgan Grenfell'
p3838
(lp3839
S'ORGANIZATION'
p3840
aS'ORGANIZATION:CORPORATION'
p3841
asS'Malaysia'
p3842
(lp3843
S'GPE'
p3844
aS'GPE:COUNTRY'
p3845
asS'columnist'
p3846
(lp3847
S'PERSON'
p3848
asS'SHV Holdings'
p3849
(lp3850
S'ORGANIZATION'
p3851
aS'ORGANIZATION:CORPORATION'
p3852
asS'Siad Barre'
p3853
(lp3854
S'PERSON'
p3855
asS'1906 earthquake'
p3856
(lp3857
S'EVENT'
p3858
aS'EVENT:WAR'
p3859
asS'cancer'
p3860
(lp3861
S'DISEASE'
p3862
asS'bricks'
p3863
(lp3864
S'SUBSTANCE'
p3865
asS'Bob Dole'
p3866
(lp3867
S'PERSON'
p3868
asS'catbird'
p3869
(lp3870
S'PLANT'
p3871
asS'Delaware'
p3872
(lp3873
S'GPE:STATE_PROVINCE'
p3874
aS'GPE'
p3875
aS'LOCATION'
p3876
asS'Sachs'
p3877
(lp3878
S'ORGANIZATION'
p3879
aS'PERSON'
p3880
aS'ORGANIZATION:CORPORATION'
p3881
asS'pop'
p3882
(lp3883
S'GPE'
p3884
aS'GPE:COUNTRY'
p3885
asS'New York Stock Exchange'
p3886
(lp3887
S'ORGANIZATION'
p3888
asS'Riverside'
p3889
(lp3890
S'GPE'
p3891
aS'GPE:CITY'
p3892
asS'Midwest'
p3893
(lp3894
S'LOCATION:REGION'
p3895
aS'LOCATION'
p3896
asS'Calif.'
p3897
(lp3898
S'GPE:STATE_PROVINCE'
p3899
aS'GPE'
p3900
aS'LOCATION'
p3901
asS'Calor Group'
p3902
(lp3903
S'ORGANIZATION'
p3904
aS'ORGANIZATION:CORPORATION'
p3905
asS'Atlanta Journal'
p3906
(lp3907
S'WORK_OF_ART:BOOK'
p3908
aS'ORGANIZATION'
p3909
aS'WORK_OF_ART'
p3910
aS'ORGANIZATION:CORPORATION'
p3911
asS'State government'
p3912
(lp3913
S'ORGANIZATION'
p3914
aS'ORGANIZATION:GOVERNMENT'
p3915
asS'crossfire'
p3916
(lp3917
S'WORK_OF_ART'
p3918
asS'Asheville'
p3919
(lp3920
S'GPE'
p3921
aS'GPE:CITY'
p3922
asS'Lynch'
p3923
(lp3924
S'PERSON'
p3925
asS'Seventh Avenue'
p3926
(lp3927
S'FACILITY:HIGHWAY_STREET'
p3928
aS'FACILITY'
p3929
asS'Columbia University'
p3930
(lp3931
S'PERSON'
p3932
aS'ORGANIZATION'
p3933
aS'ORGANIZATION:EDUCATIONAL'
p3934
aS'ORGANIZATION:CORPORATION'
p3935
asS'business analyst'
p3936
(lp3937
S'PERSON'
p3938
asS'Six'
p3939
(lp3940
S'PERSON'
p3941
aS'ORGANIZATION'
p3942
asS'Nicholas Brady'
p3943
(lp3944
S'PERSON'
p3945
asS'wounds'
p3946
(lp3947
S'DISEASE'
p3948
asS'declaration'
p3949
(lp3950
S'WORK_OF_ART:BOOK'
p3951
aS'WORK_OF_ART'
p3952
asS'Davenport'
p3953
(lp3954
S'GPE'
p3955
aS'GPE:CITY'
p3956
asS'Braintree'
p3957
(lp3958
S'GPE'
p3959
aS'GPE:CITY'
p3960
asS'sound'
p3961
(lp3962
S'PERSON'
p3963
asS'Inouye'
p3964
(lp3965
S'PERSON'
p3966
asS'Soviet-backed'
p3967
(lp3968
S'GPE'
p3969
aS'GPE:COUNTRY'
p3970
asS'premature'
p3971
(lp3972
S'DISEASE'
p3973
asS'ALCEE HASTINGS'
p3974
(lp3975
S'PERSON'
p3976
asS'investigating'
p3977
(lp3978
S'PERSON'
p3979
asS'Junge Welt'
p3980
(lp3981
S'WORK_OF_ART:BOOK'
p3982
aS'WORK_OF_ART'
p3983
asS'candies'
p3984
(lp3985
S'SUBSTANCE'
p3986
aS'SUBSTANCE:FOOD'
p3987
asS'soil'
p3988
(lp3989
S'SUBSTANCE'
p3990
asS'engaged'
p3991
(lp3992
S'PERSON'
p3993
asS'Oprah Winfrey'
p3994
(lp3995
S'PERSON'
p3996
asS'Better'
p3997
(lp3998
S'PERSON'
p3999
asS'strain'
p4000
(lp4001
S'SUBSTANCE:DRUG'
p4002
aS'SUBSTANCE'
p4003
asS'Kids'
p4004
(lp4005
S'PLANT'
p4006
aS'ANIMAL'
p4007
asS'Somali'
p4008
(lp4009
S'GPE'
p4010
aS'GPE:COUNTRY'
p4011
asS'technology'
p4012
(lp4013
S'PERSON'
p4014
asS'Israel'
p4015
(lp4016
S'GPE'
p4017
aS'GPE:CITY'
p4018
asS'Bailey Controls'
p4019
(lp4020
S'ORGANIZATION'
p4021
aS'ORGANIZATION:CORPORATION'
p4022
asS'Plans'
p4023
(lp4024
S'WORK_OF_ART'
p4025
aS'WORK_OF_ART:SONG'
p4026
asS'seats'
p4027
(lp4028
S'ORGANIZATION'
p4029
aS'ORGANIZATION:GOVERNMENT'
p4030
asS'Blunt'
p4031
(lp4032
S'PERSON'
p4033
asS'NSC'
p4034
(lp4035
S'ORGANIZATION'
p4036
aS'ORGANIZATION:GOVERNMENT'
p4037
asS'mobster'
p4038
(lp4039
S'PERSON'
p4040
asS'New Hampshire'
p4041
(lp4042
S'GPE:STATE_PROVINCE'
p4043
aS'GPE'
p4044
aS'LOCATION'
p4045
aS'PERSON'
p4046
asS'Deutsche Bank'
p4047
(lp4048
S'ORGANIZATION'
p4049
aS'ORGANIZATION:CORPORATION'
p4050
asS'Carol'
p4051
(lp4052
S'PERSON'
p4053
asS'employment opportunities'
p4054
(lp4055
S'PERSON'
p4056
asS'breakdown'
p4057
(lp4058
S'DISEASE'
p4059
asS'oil'
p4060
(lp4061
S'SUBSTANCE:DRUG'
p4062
aS'SUBSTANCE'
p4063
aS'SUBSTANCE:FOOD'
p4064
aS'SUBSTANCE:CHEMICAL'
p4065
asS'Cuban Revolution'
p4066
(lp4067
S'EVENT'
p4068
aS'EVENT:WAR'
p4069
asS'IRS'
p4070
(lp4071
S'PERSON'
p4072
asS'Kansas City'
p4073
(lp4074
S'GPE'
p4075
aS'GPE:CITY'
p4076
asS'IV'
p4077
(lp4078
S'SUBSTANCE:DRUG'
p4079
aS'SUBSTANCE'
p4080
asS'director'
p4081
(lp4082
S'PERSON'
p4083
asS'persons'
p4084
(lp4085
S'PERSON'
p4086
asS'running'
p4087
(lp4088
S'PERSON'
p4089
asS'fruit'
p4090
(lp4091
S'SUBSTANCE'
p4092
aS'SUBSTANCE:FOOD'
p4093
asS'Expo'
p4094
(lp4095
S'EVENT'
p4096
asS'Businessmen'
p4097
(lp4098
S'PERSON'
p4099
asS'IN'
p4100
(lp4101
S'GPE'
p4102
aS'LOCATION'
p4103
aS'GPE:CITY'
p4104
asS'Seven'
p4105
(lp4106
S'ORGANIZATION'
p4107
aS'ORGANIZATION:CORPORATION'
p4108
asS'media consultant'
p4109
(lp4110
S'PERSON'
p4111
asS'Sheraton'
p4112
(lp4113
S'ORGANIZATION'
p4114
aS'ORGANIZATION:CORPORATION'
p4115
asS'Is'
p4116
(lp4117
S'PERSON'
p4118
asS'Fidel'
p4119
(lp4120
S'PERSON'
p4121
asS'It'
p4122
(lp4123
S'WORK_OF_ART'
p4124
aS'CONTACT_INFO:url'
p4125
aS'LANGUAGE'
p4126
aS'CONTACT_INFO'
p4127
aS'DISEASE'
p4128
aS'WORK_OF_ART:BOOK'
p4129
asS'Omnicare Inc.'
p4130
(lp4131
S'ORGANIZATION'
p4132
aS'ORGANIZATION:CORPORATION'
p4133
asS'United Kingdom'
p4134
(lp4135
S'ORGANIZATION'
p4136
aS'GPE:COUNTRY'
p4137
aS'LOCATION'
p4138
aS'GPE'
p4139
aS'ORGANIZATION:GOVERNMENT'
p4140
asS'Coopers'
p4141
(lp4142
S'PERSON'
p4143
asS'Lotus Development Corp.'
p4144
(lp4145
S'PERSON'
p4146
aS'ORGANIZATION'
p4147
aS'ORGANIZATION:CORPORATION'
p4148
asS'In'
p4149
(lp4150
S'SUBSTANCE'
p4151
aS'CONTACT_INFO:url'
p4152
aS'SUBSTANCE:CHEMICAL'
p4153
aS'CONTACT_INFO'
p4154
asS'Michael Fay'
p4155
(lp4156
S'PERSON'
p4157
asS'Milwaukee'
p4158
(lp4159
S'GPE'
p4160
aS'GPE:CITY'
p4161
asS'daily news'
p4162
(lp4163
S'WORK_OF_ART:BOOK'
p4164
aS'ORGANIZATION'
p4165
aS'WORK_OF_ART'
p4166
aS'ORGANIZATION:CORPORATION'
p4167
asS'If'
p4168
(lp4169
S'WORK_OF_ART:BOOK'
p4170
aS'WORK_OF_ART'
p4171
aS'WORK_OF_ART:SONG'
p4172
asS'White House'
p4173
(lp4174
S'FACILITY:BUILDING'
p4175
aS'ORGANIZATION:CORPORATION'
p4176
aS'FACILITY'
p4177
aS'ORGANIZATION:GOVERNMENT'
p4178
aS'PERSON'
p4179
aS'ORGANIZATION:MUSEUM'
p4180
aS'FACILITY:ATTRACTION'
p4181
aS'ORGANIZATION'
p4182
asS'Rand McNally'
p4183
(lp4184
S'PERSON'
p4185
aS'ORGANIZATION'
p4186
aS'ORGANIZATION:CORPORATION'
p4187
asS'United'
p4188
(lp4189
S'ORGANIZATION'
p4190
aS'ORGANIZATION:CORPORATION'
p4191
aS'PERSON'
p4192
asS'Daniel'
p4193
(lp4194
S'WORK_OF_ART:BOOK'
p4195
aS'WORK_OF_ART'
p4196
asS'kill'
p4197
(lp4198
S'DISEASE'
p4199
asS'Comcast'
p4200
(lp4201
S'ORGANIZATION'
p4202
aS'ORGANIZATION:CORPORATION'
p4203
asS'speed'
p4204
(lp4205
S'SUBSTANCE:DRUG'
p4206
aS'SUBSTANCE'
p4207
aS'SUBSTANCE:CHEMICAL'
p4208
asS'Archer-Daniels-Midland'
p4209
(lp4210
S'ORGANIZATION'
p4211
aS'ORGANIZATION:CORPORATION'
p4212
asS'Belgian'
p4213
(lp4214
S'GPE'
p4215
aS'GPE:COUNTRY'
p4216
asS'blow'
p4217
(lp4218
S'SUBSTANCE:DRUG'
p4219
aS'SUBSTANCE'
p4220
aS'SUBSTANCE:CHEMICAL'
p4221
asS'Cowan'
p4222
(lp4223
S'PERSON'
p4224
asS'rose'
p4225
(lp4226
S'PLANT'
p4227
asS'Shugart'
p4228
(lp4229
S'ORGANIZATION'
p4230
aS'ORGANIZATION:CORPORATION'
p4231
asS'Bear Stearns'
p4232
(lp4233
S'ORGANIZATION'
p4234
aS'ORGANIZATION:CORPORATION'
p4235
asS'American Express'
p4236
(lp4237
S'ORGANIZATION'
p4238
aS'ORGANIZATION:CORPORATION'
p4239
aS'PERSON'
p4240
asS'The main'
p4241
(lp4242
S'FACILITY:HIGHWAY_STREET'
p4243
aS'FACILITY'
p4244
asS'Crane'
p4245
(lp4246
S'PLANT'
p4247
aS'ANIMAL'
p4248
asS'scheduled'
p4249
(lp4250
S'LAW'
p4251
asS'Givaudan'
p4252
(lp4253
S'ORGANIZATION'
p4254
aS'ORGANIZATION:CORPORATION'
p4255
asS'The panel'
p4256
(lp4257
S'WORK_OF_ART'
p4258
asS'Many'
p4259
(lp4260
S'GPE'
p4261
aS'GPE:CITY'
p4262
asS'Pine Bluff'
p4263
(lp4264
S'GPE'
p4265
aS'GPE:CITY'
p4266
asS'Drake'
p4267
(lp4268
S'PERSON'
p4269
asS'early'
p4270
(lp4271
S'EVENT'
p4272
asS'Solomon'
p4273
(lp4274
S'PERSON'
p4275
asS'Steve Kloves'
p4276
(lp4277
S'PERSON'
p4278
asS'execution'
p4279
(lp4280
S'EVENT'
p4281
aS'EVENT:WAR'
p4282
asS'U.N.'
p4283
(lp4284
S'ORGANIZATION'
p4285
aS'ORGANIZATION:CORPORATION'
p4286
aS'PERSON'
p4287
aS'ORGANIZATION:GOVERNMENT'
p4288
asS'Talk'
p4289
(lp4290
S'PERSON'
p4291
asS'Saunders'
p4292
(lp4293
S'ORGANIZATION'
p4294
aS'ORGANIZATION:CORPORATION'
p4295
asS'MCA Inc.'
p4296
(lp4297
S'ORGANIZATION'
p4298
aS'ORGANIZATION:CORPORATION'
p4299
asS'Jackie Mason'
p4300
(lp4301
S'PERSON'
p4302
asS'Air Force'
p4303
(lp4304
S'ORGANIZATION'
p4305
aS'ORGANIZATION:CORPORATION'
p4306
aS'ORGANIZATION:GOVERNMENT'
p4307
asS'Warren Burger'
p4308
(lp4309
S'PERSON'
p4310
asS'maker'
p4311
(lp4312
S'PERSON'
p4313
asS'London'
p4314
(lp4315
S'GPE'
p4316
aS'LOCATION'
p4317
aS'GPE:CITY'
p4318
asS'British Chancellor'
p4319
(lp4320
S'PERSON'
p4321
asS'served'
p4322
(lp4323
S'PERSON'
p4324
asS'wire service'
p4325
(lp4326
S'WORK_OF_ART:BOOK'
p4327
aS'ORGANIZATION'
p4328
aS'ORGANIZATION:CORPORATION'
p4329
aS'WORK_OF_ART'
p4330
aS'PERSON'
p4331
asS'Before'
p4332
(lp4333
S'EVENT'
p4334
asS'The freeze'
p4335
(lp4336
S'PERSON'
p4337
aS'ORGANIZATION'
p4338
asS'Somalis'
p4339
(lp4340
S'GPE'
p4341
aS'GPE:COUNTRY'
p4342
asS'The Nation'
p4343
(lp4344
S'WORK_OF_ART:BOOK'
p4345
aS'WORK_OF_ART'
p4346
asS'Gerald'
p4347
(lp4348
S'PERSON'
p4349
asS'PR Newswire'
p4350
(lp4351
S'WORK_OF_ART:BOOK'
p4352
aS'ORGANIZATION'
p4353
aS'WORK_OF_ART'
p4354
aS'ORGANIZATION:CORPORATION'
p4355
asS'industry analyst'
p4356
(lp4357
S'PERSON'
p4358
asS'Mark'
p4359
(lp4360
S'WORK_OF_ART:BOOK'
p4361
aS'WORK_OF_ART'
p4362
asS'Geoffrey'
p4363
(lp4364
S'PERSON'
p4365
asS'Somalia'
p4366
(lp4367
S'GPE'
p4368
aS'GPE:COUNTRY'
p4369
asS'International'
p4370
(lp4371
S'ORGANIZATION'
p4372
aS'ORGANIZATION:CORPORATION'
p4373
asS'Marx'
p4374
(lp4375
S'PERSON'
p4376
asS'endeavor'
p4377
(lp4378
S'ORGANIZATION'
p4379
aS'ORGANIZATION:CORPORATION'
p4380
asS'Danish'
p4381
(lp4382
S'GPE'
p4383
aS'LOCATION'
p4384
aS'GPE:COUNTRY'
p4385
asS'wobbly'
p4386
(lp4387
S'ORGANIZATION'
p4388
aS'ORGANIZATION:CORPORATION'
p4389
asS'Eiffel Tower'
p4390
(lp4391
S'FACILITY:ATTRACTION'
p4392
aS'FACILITY:BUILDING'
p4393
aS'FACILITY'
p4394
asS'recorded'
p4395
(lp4396
S'PERSON'
p4397
asS'critical'
p4398
(lp4399
S'PERSON'
p4400
asS'LA Weekly'
p4401
(lp4402
S'WORK_OF_ART:BOOK'
p4403
aS'WORK_OF_ART'
p4404
asS'Peter Lang'
p4405
(lp4406
S'PERSON'
p4407
asS'Jute'
p4408
(lp4409
S'PLANT'
p4410
asS'The slowdown'
p4411
(lp4412
S'FACILITY:BUILDING'
p4413
aS'FACILITY'
p4414
asS'News Corp'
p4415
(lp4416
S'ORGANIZATION'
p4417
aS'ORGANIZATION:CORPORATION'
p4418
asS'Pacific Bell'
p4419
(lp4420
S'ORGANIZATION'
p4421
aS'ORGANIZATION:CORPORATION'
p4422
asS'chefs'
p4423
(lp4424
S'PERSON'
p4425
aS'GPE'
p4426
aS'GPE:COUNTRY'
p4427
asS'Graduate School'
p4428
(lp4429
S'PERSON'
p4430
aS'ORGANIZATION:EDUCATIONAL'
p4431
aS'ORGANIZATION'
p4432
asS'stone'
p4433
(lp4434
S'SUBSTANCE'
p4435
asS'central'
p4436
(lp4437
S'LOCATION:REGION'
p4438
aS'LOCATION'
p4439
asS'paralysis'
p4440
(lp4441
S'DISEASE'
p4442
asS'Westborough'
p4443
(lp4444
S'GPE'
p4445
aS'LOCATION'
p4446
aS'GPE:CITY'
p4447
asS'British Parliament'
p4448
(lp4449
S'GPE'
p4450
aS'GPE:COUNTRY'
p4451
asS'Paper'
p4452
(lp4453
S'SUBSTANCE'
p4454
asS'airline'
p4455
(lp4456
S'ORGANIZATION'
p4457
aS'ORGANIZATION:CORPORATION'
p4458
aS'PERSON'
p4459
asS'Chevron'
p4460
(lp4461
S'ORGANIZATION'
p4462
aS'ORGANIZATION:CORPORATION'
p4463
asS'Guangdong'
p4464
(lp4465
S'GPE:STATE_PROVINCE'
p4466
aS'GPE'
p4467
aS'LOCATION'
p4468
asS'West Coast'
p4469
(lp4470
S'LOCATION:REGION'
p4471
aS'LOCATION'
p4472
asS'Jim Finks'
p4473
(lp4474
S'PERSON'
p4475
asS'outlook'
p4476
(lp4477
S'WORK_OF_ART:BOOK'
p4478
aS'ORGANIZATION'
p4479
aS'WORK_OF_ART'
p4480
aS'ORGANIZATION:CORPORATION'
p4481
asS'No'
p4482
(lp4483
S'LANGUAGE'
p4484
asS'Palo Alto'
p4485
(lp4486
S'GPE'
p4487
aS'GPE:CITY'
p4488
asS'harm'
p4489
(lp4490
S'DISEASE'
p4491
asS'Delaware Chancery Court'
p4492
(lp4493
S'ORGANIZATION'
p4494
aS'ORGANIZATION:GOVERNMENT'
p4495
asS'Arkansas'
p4496
(lp4497
S'GPE:STATE_PROVINCE'
p4498
aS'GPE'
p4499
aS'LOCATION'
p4500
aS'ORGANIZATION'
p4501
asS'West Germany'
p4502
(lp4503
S'GPE'
p4504
aS'LOCATION'
p4505
aS'GPE:COUNTRY'
p4506
asS'Empty'
p4507
(lp4508
S'PERSON'
p4509
aS'ORGANIZATION'
p4510
asS'North Point Press'
p4511
(lp4512
S'ORGANIZATION'
p4513
aS'ORGANIZATION:CORPORATION'
p4514
asS'area'
p4515
(lp4516
S'ORGANIZATION'
p4517
aS'ORGANIZATION:CORPORATION'
p4518
asS'assumed'
p4519
(lp4520
S'PLANT'
p4521
aS'ANIMAL'
p4522
asS'Littleton'
p4523
(lp4524
S'GPE'
p4525
aS'GPE:CITY'
p4526
asS'Santa Cruz'
p4527
(lp4528
S'GPE'
p4529
aS'GPE:CITY'
p4530
asS'house'
p4531
(lp4532
S'PERSON'
p4533
asS'Pan American World Airways'
p4534
(lp4535
S'ORGANIZATION'
p4536
aS'ORGANIZATION:CORPORATION'
p4537
asS'Assab'
p4538
(lp4539
S'GPE'
p4540
aS'GPE:CITY'
p4541
asS'Roger Ailes'
p4542
(lp4543
S'PERSON'
p4544
asS'incumbency'
p4545
(lp4546
S'PERSON'
p4547
asS'Remember'
p4548
(lp4549
S'EVENT'
p4550
asS'Eddie Bauer'
p4551
(lp4552
S'ORGANIZATION'
p4553
aS'ORGANIZATION:CORPORATION'
p4554
asS'Little Rock'
p4555
(lp4556
S'GPE'
p4557
aS'GPE:CITY'
p4558
asS'News Tribune'
p4559
(lp4560
S'WORK_OF_ART:BOOK'
p4561
aS'WORK_OF_ART'
p4562
asS'cabinet'
p4563
(lp4564
S'PERSON'
p4565
asS'Namibia'
p4566
(lp4567
S'GPE'
p4568
aS'GPE:COUNTRY'
p4569
asS'foxes'
p4570
(lp4571
S'PLANT'
p4572
aS'ANIMAL'
p4573
asS'hurricanes'
p4574
(lp4575
S'EVENT:HURRICANE'
p4576
aS'EVENT'
p4577
asS'Commodity Exchange'
p4578
(lp4579
S'ORGANIZATION'
p4580
aS'ORGANIZATION:CORPORATION'
p4581
asS'Don Quixote'
p4582
(lp4583
S'WORK_OF_ART:BOOK'
p4584
aS'WORK_OF_ART'
p4585
asS'technologies'
p4586
(lp4587
S'PERSON'
p4588
asS'Mark Hopkins Hotel'
p4589
(lp4590
S'ORGANIZATION'
p4591
aS'FACILITY'
p4592
aS'FACILITY:BUILDING'
p4593
aS'ORGANIZATION:HOTEL'
p4594
asS'Lancia'
p4595
(lp4596
S'ORGANIZATION'
p4597
aS'ORGANIZATION:CORPORATION'
p4598
asS'The monthly'
p4599
(lp4600
S'WORK_OF_ART:BOOK'
p4601
aS'WORK_OF_ART'
p4602
asS'federal funds'
p4603
(lp4604
S'PERSON'
p4605
aS'ORGANIZATION'
p4606
aS'ORGANIZATION:GOVERNMENT'
p4607
asS'abused'
p4608
(lp4609
S'DISEASE'
p4610
asS'Grand Metropolitan PLC'
p4611
(lp4612
S'ORGANIZATION'
p4613
aS'ORGANIZATION:CORPORATION'
p4614
asS'rage'
p4615
(lp4616
S'WORK_OF_ART'
p4617
asS'House'
p4618
(lp4619
S'ORGANIZATION'
p4620
aS'WORK_OF_ART'
p4621
aS'ORGANIZATION:GOVERNMENT'
p4622
asS'Melvin Belli'
p4623
(lp4624
S'PERSON'
p4625
asS'Brooklyn'
p4626
(lp4627
S'LOCATION'
p4628
asS'Joanne'
p4629
(lp4630
S'PERSON'
p4631
asS'Derek'
p4632
(lp4633
S'PERSON'
p4634
asS'grass'
p4635
(lp4636
S'SUBSTANCE:DRUG'
p4637
aS'SUBSTANCE'
p4638
asS'builders'
p4639
(lp4640
S'PERSON'
p4641
asS'Anglia'
p4642
(lp4643
S'ORGANIZATION'
p4644
aS'ORGANIZATION:CORPORATION'
p4645
aS'PERSON'
p4646
asS'USA'
p4647
(lp4648
S'GPE'
p4649
aS'LOCATION'
p4650
aS'GPE:COUNTRY'
p4651
asS'Farmers'
p4652
(lp4653
S'PERSON'
p4654
asS'Armenians'
p4655
(lp4656
S'EVENT'
p4657
aS'EVENT:WAR'
p4658
asS'deep'
p4659
(lp4660
S'PERSON'
p4661
asS'fellow'
p4662
(lp4663
S'ORGANIZATION'
p4664
aS'ORGANIZATION:CORPORATION'
p4665
aS'PERSON'
p4666
asS'film'
p4667
(lp4668
S'WORK_OF_ART'
p4669
asS'USX'
p4670
(lp4671
S'ORGANIZATION'
p4672
aS'ORGANIZATION:CORPORATION'
p4673
asS'First Tennessee Bank'
p4674
(lp4675
S'ORGANIZATION'
p4676
aS'ORGANIZATION:CORPORATION'
p4677
asS'cinematography'
p4678
(lp4679
S'PERSON'
p4680
asS'narrowing'
p4681
(lp4682
S'DISEASE'
p4683
asS'Amram'
p4684
(lp4685
S'PERSON'
p4686
asS'Hurricanes'
p4687
(lp4688
S'ORGANIZATION'
p4689
asS'British prime minister'
p4690
(lp4691
S'PERSON'
p4692
asS'Arthur Ochs Sulzberger'
p4693
(lp4694
S'PERSON'
p4695
asS'Stamford'
p4696
(lp4697
S'GPE'
p4698
aS'GPE:CITY'
p4699
asS'At'
p4700
(lp4701
S'SUBSTANCE'
p4702
aS'SUBSTANCE:CHEMICAL'
p4703
asS'Comptroller'
p4704
(lp4705
S'PERSON'
p4706
asS'Omaha'
p4707
(lp4708
S'GPE'
p4709
aS'GPE:CITY'
p4710
asS'wounded'
p4711
(lp4712
S'DISEASE'
p4713
asS'students'
p4714
(lp4715
S'PERSON'
p4716
asS'peas'
p4717
(lp4718
S'PLANT'
p4719
aS'SUBSTANCE'
p4720
aS'PRODUCT'
p4721
aS'SUBSTANCE:FOOD'
p4722
asS'restaurant manager'
p4723
(lp4724
S'PERSON'
p4725
asS'Interstate 30'
p4726
(lp4727
S'FACILITY:HIGHWAY_STREET'
p4728
aS'FACILITY'
p4729
asS'CNN'
p4730
(lp4731
S'ORGANIZATION'
p4732
aS'ORGANIZATION:CORPORATION'
p4733
aS'PERSON'
p4734
asS'brass'
p4735
(lp4736
S'SUBSTANCE'
p4737
asS'Dave Grusin'
p4738
(lp4739
S'PERSON'
p4740
asS'Major'
p4741
(lp4742
S'PERSON'
p4743
asS'Oakland'
p4744
(lp4745
S'GPE'
p4746
aS'GPE:CITY'
p4747
asS'directors'
p4748
(lp4749
S'PERSON'
p4750
asS'Soybean'
p4751
(lp4752
S'PLANT'
p4753
aS'SUBSTANCE'
p4754
aS'PRODUCT'
p4755
aS'SUBSTANCE:FOOD'
p4756
asS'Miss America'
p4757
(lp4758
S'EVENT'
p4759
asS'starting'
p4760
(lp4761
S'PERSON'
p4762
asS'Fame'
p4763
(lp4764
S'WORK_OF_ART'
p4765
asS'Canada'
p4766
(lp4767
S'GPE'
p4768
aS'GPE:COUNTRY'
p4769
asS'Edison'
p4770
(lp4771
S'GPE:CITY'
p4772
aS'PERSON'
p4773
aS'ORGANIZATION:CORPORATION'
p4774
aS'GPE'
p4775
aS'ORGANIZATION'
p4776
asS'ESPN'
p4777
(lp4778
S'WORK_OF_ART'
p4779
asS'Japanese government'
p4780
(lp4781
S'ORGANIZATION'
p4782
aS'ORGANIZATION:GOVERNMENT'
p4783
asS'ale'
p4784
(lp4785
S'PRODUCT'
p4786
aS'SUBSTANCE'
p4787
aS'SUBSTANCE:FOOD'
p4788
asS'Supreme Court'
p4789
(lp4790
S'ORGANIZATION'
p4791
aS'ORGANIZATION:GOVERNMENT'
p4792
asS'Moon'
p4793
(lp4794
S'LOCATION'
p4795
asS'SIA'
p4796
(lp4797
S'ORGANIZATION'
p4798
aS'ORGANIZATION:CORPORATION'
p4799
asS'Kaplan'
p4800
(lp4801
S'PERSON'
p4802
asS'Certificates'
p4803
(lp4804
S'PERSON'
p4805
asS'Eurostat'
p4806
(lp4807
S'PERSON'
p4808
asS'Asahi'
p4809
(lp4810
S'WORK_OF_ART:BOOK'
p4811
aS'WORK_OF_ART'
p4812
asS'Brown'
p4813
(lp4814
S'ORGANIZATION'
p4815
aS'ORGANIZATION:EDUCATIONAL'
p4816
aS'ORGANIZATION:CORPORATION'
p4817
asS'Byzantine'
p4818
(lp4819
S'GPE'
p4820
aS'GPE:COUNTRY'
p4821
asS'sparkling'
p4822
(lp4823
S'PRODUCT'
p4824
aS'SUBSTANCE'
p4825
aS'SUBSTANCE:FOOD'
p4826
asS'program'
p4827
(lp4828
S'PERSON'
p4829
asS'lawmakers'
p4830
(lp4831
S'PERSON'
p4832
asS'risk factors'
p4833
(lp4834
S'DISEASE'
p4835
asS'activities'
p4836
(lp4837
S'SUBSTANCE:DRUG'
p4838
aS'SUBSTANCE'
p4839
asS'James Tobin'
p4840
(lp4841
S'PERSON'
p4842
asS'translations'
p4843
(lp4844
S'PERSON'
p4845
asS'fat'
p4846
(lp4847
S'DISEASE'
p4848
asS'Arkansas Democrat'
p4849
(lp4850
S'WORK_OF_ART:BOOK'
p4851
aS'WORK_OF_ART'
p4852
asS'Cook'
p4853
(lp4854
S'LOCATION'
p4855
asS'Treasury secretary'
p4856
(lp4857
S'PERSON'
p4858
asS'fall'
p4859
(lp4860
S'EVENT'
p4861
aS'EVENT:WAR'
p4862
asS'Coast Guard'
p4863
(lp4864
S'PERSON'
p4865
aS'ORGANIZATION'
p4866
aS'ORGANIZATION:GOVERNMENT'
p4867
asS'difference'
p4868
(lp4869
S'PERSON'
p4870
asS'Cockburn'
p4871
(lp4872
S'PERSON'
p4873
asS'Chicago Bears'
p4874
(lp4875
S'ORGANIZATION'
p4876
asS'Copper'
p4877
(lp4878
S'SUBSTANCE:DRUG'
p4879
aS'SUBSTANCE'
p4880
aS'SUBSTANCE:CHEMICAL'
p4881
asS'Groton'
p4882
(lp4883
S'GPE'
p4884
aS'GPE:CITY'
p4885
asS'MasterCard'
p4886
(lp4887
S'ORGANIZATION'
p4888
aS'ORGANIZATION:CORPORATION'
p4889
asS'Soldiers'
p4890
(lp4891
S'PERSON'
p4892
asS'self-employment'
p4893
(lp4894
S'PERSON'
p4895
asS'deputy mayor'
p4896
(lp4897
S'PERSON'
p4898
asS'fence'
p4899
(lp4900
S'PERSON'
p4901
asS'British Petroleum'
p4902
(lp4903
S'ORGANIZATION'
p4904
aS'ORGANIZATION:CORPORATION'
p4905
asS'streets'
p4906
(lp4907
S'PERSON'
p4908
asS'Denver'
p4909
(lp4910
S'GPE'
p4911
aS'LOCATION'
p4912
aS'GPE:CITY'
p4913
asS'Georg'
p4914
(lp4915
S'PERSON'
p4916
asS'late Friday'
p4917
(lp4918
S'WORK_OF_ART'
p4919
asS'lawyer'
p4920
(lp4921
S'PERSON'
p4922
asS'Federal Emergency Management Agency'
p4923
(lp4924
S'ORGANIZATION'
p4925
aS'ORGANIZATION:CORPORATION'
p4926
asS'Kleinwort Benson'
p4927
(lp4928
S'ORGANIZATION'
p4929
aS'ORGANIZATION:CORPORATION'
p4930
asS'Newcomb'
p4931
(lp4932
S'GPE'
p4933
aS'GPE:CITY'
p4934
asS'East'
p4935
(lp4936
S'GPE'
p4937
aS'GPE:CITY'
p4938
asS'investment'
p4939
(lp4940
S'PERSON'
p4941
asS'Golden Gate Park'
p4942
(lp4943
S'FACILITY:ATTRACTION'
p4944
aS'FACILITY'
p4945
asS'Atlantans'
p4946
(lp4947
S'GPE'
p4948
aS'GPE:CITY'
p4949
asS'associate'
p4950
(lp4951
S'PERSON'
p4952
asS'crush'
p4953
(lp4954
S'WORK_OF_ART:BOOK'
p4955
aS'WORK_OF_ART'
p4956
aS'CONTACT_INFO:url'
p4957
aS'CONTACT_INFO'
p4958
asS'United Biscuits'
p4959
(lp4960
S'ORGANIZATION'
p4961
aS'ORGANIZATION:CORPORATION'
p4962
asS'Toronto-Dominion'
p4963
(lp4964
S'ORGANIZATION'
p4965
aS'ORGANIZATION:CORPORATION'
p4966
asS'scientists'
p4967
(lp4968
S'PERSON'
p4969
asS'LaSalle'
p4970
(lp4971
S'GPE'
p4972
aS'GPE:CITY'
p4973
asS'Revco'
p4974
(lp4975
S'ORGANIZATION'
p4976
aS'ORGANIZATION:CORPORATION'
p4977
asS'full'
p4978
(lp4979
S'ORGANIZATION'
p4980
asS'mull'
p4981
(lp4982
S'GPE'
p4983
asS'Banque Paribas'
p4984
(lp4985
S'ORGANIZATION'
p4986
aS'ORGANIZATION:CORPORATION'
p4987
asS'NFL'
p4988
(lp4989
S'ORGANIZATION'
p4990
aS'ORGANIZATION:CORPORATION'
p4991
aS'PERSON'
p4992
asS'National Football League'
p4993
(lp4994
S'ORGANIZATION'
p4995
aS'ORGANIZATION:CORPORATION'
p4996
aS'PERSON'
p4997
asS'mayoral'
p4998
(lp4999
S'PERSON'
p5000
asS'Arthur'
p5001
(lp5002
S'PERSON'
p5003
asS'operating'
p5004
(lp5005
S'SUBSTANCE:DRUG'
p5006
aS'SUBSTANCE'
p5007
asS'directions'
p5008
(lp5009
S'PERSON'
p5010
asS'Manhattan borough president'
p5011
(lp5012
S'PERSON'
p5013
asS'backlash'
p5014
(lp5015
S'EVENT'
p5016
aS'EVENT:WAR'
p5017
asS'publishes'
p5018
(lp5019
S'PERSON'
p5020
asS'publisher'
p5021
(lp5022
S'PERSON'
p5023
asS'prosecutors'
p5024
(lp5025
S'PERSON'
p5026
asS'Clark'
p5027
(lp5028
S'LOCATION'
p5029
asS'Rodman'
p5030
(lp5031
S'LOCATION'
p5032
asS'Business Week magazine'
p5033
(lp5034
S'WORK_OF_ART:BOOK'
p5035
aS'WORK_OF_ART'
p5036
asS'James Wright'
p5037
(lp5038
S'PERSON'
p5039
asS'prior'
p5040
(lp5041
S'PERSON'
p5042
asS'published'
p5043
(lp5044
S'PERSON'
p5045
asS'streamline'
p5046
(lp5047
S'PERSON'
p5048
asS'sealing'
p5049
(lp5050
S'PLANT'
p5051
asS'Forrest'
p5052
(lp5053
S'PERSON'
p5054
asS'Conn'
p5055
(lp5056
S'ORGANIZATION'
p5057
aS'ORGANIZATION:CORPORATION'
p5058
asS'Victor'
p5059
(lp5060
S'ORGANIZATION'
p5061
aS'ORGANIZATION:CORPORATION'
p5062
asS'shorthand'
p5063
(lp5064
S'PERSON'
p5065
asS'buses'
p5066
(lp5067
S'PRODUCT:VEHICLE'
p5068
aS'PRODUCT'
p5069
asS'Scorpio'
p5070
(lp5071
S'PRODUCT:VEHICLE'
p5072
aS'PRODUCT'
p5073
asS'Clarke'
p5074
(lp5075
S'PERSON'
p5076
asS'Canton'
p5077
(lp5078
S'GPE'
p5079
aS'LOCATION'
p5080
aS'GPE:CITY'
p5081
asS'Richmond'
p5082
(lp5083
S'GPE'
p5084
aS'LOCATION'
p5085
aS'GPE:CITY'
p5086
asS'Louisville'
p5087
(lp5088
S'GPE'
p5089
aS'LOCATION'
p5090
aS'GPE:CITY'
p5091
asS'S.'
p5092
(lp5093
S'LANGUAGE'
p5094
asS'legislator'
p5095
(lp5096
S'ORGANIZATION'
p5097
aS'ORGANIZATION:GOVERNMENT'
p5098
asS'The bill'
p5099
(lp5100
S'WORK_OF_ART'
p5101
asS'Dinkins'
p5102
(lp5103
S'PERSON'
p5104
asS'Hewlett-Packard'
p5105
(lp5106
S'ORGANIZATION'
p5107
aS'ORGANIZATION:CORPORATION'
p5108
aS'PERSON'
p5109
asS'Santa Cruz County'
p5110
(lp5111
S'LOCATION'
p5112
asS'Montedison'
p5113
(lp5114
S'ORGANIZATION'
p5115
aS'ORGANIZATION:CORPORATION'
p5116
asS'Sudan'
p5117
(lp5118
S'GPE'
p5119
aS'GPE:COUNTRY'
p5120
asS'Belgique'
p5121
(lp5122
S'GPE'
p5123
aS'GPE:COUNTRY'
p5124
asS'Russian'
p5125
(lp5126
S'GPE'
p5127
aS'LOCATION'
p5128
aS'LANGUAGE'
p5129
aS'GPE:COUNTRY'
p5130
asS'merchant bank'
p5131
(lp5132
S'PERSON'
p5133
asS'Hong Kong'
p5134
(lp5135
S'GPE:CITY'
p5136
aS'GPE'
p5137
aS'LOCATION:REGION'
p5138
aS'LOCATION'
p5139
aS'GPE:COUNTRY'
p5140
asS'Shanghai'
p5141
(lp5142
S'GPE'
p5143
aS'LOCATION'
p5144
aS'GPE:CITY'
p5145
asS'Boeing'
p5146
(lp5147
S'ORGANIZATION'
p5148
aS'ORGANIZATION:CORPORATION'
p5149
asS'Intel'
p5150
(lp5151
S'PERSON'
p5152
aS'ORGANIZATION'
p5153
aS'ORGANIZATION:CORPORATION'
p5154
asS'Sotheby'
p5155
(lp5156
S'ORGANIZATION'
p5157
aS'ORGANIZATION:CORPORATION'
p5158
asS'Braidwood'
p5159
(lp5160
S'GPE'
p5161
aS'GPE:CITY'
p5162
asS'Philippines'
p5163
(lp5164
S'GPE'
p5165
aS'GPE:COUNTRY'
p5166
asS'American Brands'
p5167
(lp5168
S'ORGANIZATION'
p5169
aS'ORGANIZATION:CORPORATION'
p5170
asS'Chickens'
p5171
(lp5172
S'PLANT'
p5173
aS'ANIMAL'
p5174
asS'Kodak'
p5175
(lp5176
S'ORGANIZATION'
p5177
aS'ORGANIZATION:CORPORATION'
p5178
aS'PERSON'
p5179
asS'American'
p5180
(lp5181
S'GPE'
p5182
aS'ORGANIZATION:GOVERNMENT'
p5183
aS'LOCATION'
p5184
aS'ORGANIZATION'
p5185
aS'GPE:COUNTRY'
p5186
asS'So'
p5187
(lp5188
S'PERSON'
p5189
asS'lemons'
p5190
(lp5191
S'PLANT'
p5192
aS'SUBSTANCE'
p5193
aS'PRODUCT'
p5194
aS'SUBSTANCE:FOOD'
p5195
asS'fruit juices'
p5196
(lp5197
S'PRODUCT'
p5198
aS'SUBSTANCE'
p5199
aS'SUBSTANCE:FOOD'
p5200
asS'Aden'
p5201
(lp5202
S'GPE'
p5203
aS'LOCATION'
p5204
aS'GPE:CITY'
p5205
asS'producing'
p5206
(lp5207
S'PERSON'
p5208
asS'Byron'
p5209
(lp5210
S'PERSON'
p5211
asS'forest products'
p5212
(lp5213
S'PLANT'
p5214
asS'Jimmy Johnson'
p5215
(lp5216
S'PERSON'
p5217
asS'Roberto Calvi'
p5218
(lp5219
S'PERSON'
p5220
asS'Mideast'
p5221
(lp5222
S'LOCATION:REGION'
p5223
aS'LOCATION'
p5224
asS'Ind'
p5225
(lp5226
S'ORGANIZATION:POLITICAL'
p5227
aS'ORGANIZATION'
p5228
asS'Oklahoma City'
p5229
(lp5230
S'GPE'
p5231
aS'GPE:CITY'
p5232
asS'Seagate Technology'
p5233
(lp5234
S'ORGANIZATION'
p5235
aS'ORGANIZATION:CORPORATION'
p5236
asS'Tomorrow'
p5237
(lp5238
S'PERSON'
p5239
aS'ORGANIZATION'
p5240
asS'Inc'
p5241
(lp5242
S'WORK_OF_ART:BOOK'
p5243
aS'WORK_OF_ART'
p5244
asS'Treasury Department'
p5245
(lp5246
S'ORGANIZATION'
p5247
aS'ORGANIZATION:GOVERNMENT'
p5248
asS'Buyers'
p5249
(lp5250
S'PERSON'
p5251
asS'IBM'
p5252
(lp5253
S'PERSON'
p5254
aS'ORGANIZATION'
p5255
aS'ORGANIZATION:CORPORATION'
p5256
asS'stated'
p5257
(lp5258
S'WORK_OF_ART:BOOK'
p5259
aS'WORK_OF_ART'
p5260
asS'The plant'
p5261
(lp5262
S'ORGANIZATION'
p5263
aS'ORGANIZATION:CORPORATION'
p5264
asS'Speaker'
p5265
(lp5266
S'PERSON'
p5267
asS'Thompson'
p5268
(lp5269
S'LOCATION'
p5270
aS'LOCATION:RIVER'
p5271
asS'Calif'
p5272
(lp5273
S'GPE:STATE_PROVINCE'
p5274
aS'GPE'
p5275
aS'LOCATION'
p5276
asS'Parliament'
p5277
(lp5278
S'ORGANIZATION'
p5279
aS'ORGANIZATION:GOVERNMENT'
p5280
asS'Federal Deposit Insurance Corporation'
p5281
(lp5282
S'ORGANIZATION'
p5283
aS'ORGANIZATION:GOVERNMENT'
p5284
asS'comfort'
p5285
(lp5286
S'DISEASE'
p5287
asS'Carpenter'
p5288
(lp5289
S'PERSON'
p5290
asS'Cuban government'
p5291
(lp5292
S'EVENT'
p5293
aS'EVENT:WAR'
p5294
asS'Environmental Defense Fund'
p5295
(lp5296
S'ORGANIZATION'
p5297
aS'ORGANIZATION:CORPORATION'
p5298
asS'Toronto-Dominion Bank'
p5299
(lp5300
S'ORGANIZATION'
p5301
aS'ORGANIZATION:CORPORATION'
p5302
asS'Lower'
p5303
(lp5304
S'LOCATION'
p5305
asS'Central Intelligence Agency'
p5306
(lp5307
S'ORGANIZATION'
p5308
aS'ORGANIZATION:GOVERNMENT'
p5309
asS'Epps'
p5310
(lp5311
S'PERSON'
p5312
asS'Nebraska'
p5313
(lp5314
S'GPE:STATE_PROVINCE'
p5315
aS'GPE'
p5316
aS'LOCATION'
p5317
aS'ORGANIZATION'
p5318
aS'ORGANIZATION:CORPORATION'
p5319
asS'Wilbur Ross'
p5320
(lp5321
S'PERSON'
p5322
asS'Swiss'
p5323
(lp5324
S'GPE'
p5325
aS'GPE:COUNTRY'
p5326
asS'Syria'
p5327
(lp5328
S'GPE'
p5329
aS'GPE:COUNTRY'
p5330
asS'response'
p5331
(lp5332
S'ORGANIZATION'
p5333
aS'ORGANIZATION:CORPORATION'
p5334
asS'bleak'
p5335
(lp5336
S'PLANT'
p5337
asS'Really'
p5338
(lp5339
S'ORGANIZATION'
p5340
aS'ORGANIZATION:CORPORATION'
p5341
asS'South African'
p5342
(lp5343
S'EVENT'
p5344
asS'Stevens'
p5345
(lp5346
S'PERSON'
p5347
asS'Southland'
p5348
(lp5349
S'LOCATION'
p5350
asS'meat'
p5351
(lp5352
S'SUBSTANCE'
p5353
aS'SUBSTANCE:FOOD'
p5354
asS'coal'
p5355
(lp5356
S'SUBSTANCE'
p5357
asS'shore'
p5358
(lp5359
S'FACILITY:ATTRACTION'
p5360
aS'FACILITY'
p5361
asS'Democrats'
p5362
(lp5363
S'ORGANIZATION:POLITICAL'
p5364
aS'ORGANIZATION'
p5365
asS'egg'
p5366
(lp5367
S'PRODUCT'
p5368
aS'SUBSTANCE'
p5369
aS'SUBSTANCE:FOOD'
p5370
asS'playing'
p5371
(lp5372
S'PERSON'
p5373
asS'What'
p5374
(lp5375
S'ORGANIZATION'
p5376
aS'ORGANIZATION:CORPORATION'
p5377
asS'developed'
p5378
(lp5379
S'PERSON'
p5380
asS'U.K.'
p5381
(lp5382
S'GPE'
p5383
aS'LOCATION'
p5384
aS'GPE:COUNTRY'
p5385
asS'Midler'
p5386
(lp5387
S'PERSON'
p5388
asS'scientist'
p5389
(lp5390
S'PERSON'
p5391
asS'league commissioner'
p5392
(lp5393
S'PERSON'
p5394
asS'Middle East'
p5395
(lp5396
S'LOCATION:REGION'
p5397
aS'LOCATION'
p5398
asS'lasers'
p5399
(lp5400
S'SUBSTANCE:DRUG'
p5401
aS'SUBSTANCE'
p5402
asS'Edelman'
p5403
(lp5404
S'ORGANIZATION'
p5405
aS'ORGANIZATION:CORPORATION'
p5406
asS'MIT'
p5407
(lp5408
S'PERSON'
p5409
aS'ORGANIZATION'
p5410
aS'ORGANIZATION:EDUCATIONAL'
p5411
aS'ORGANIZATION:CORPORATION'
p5412
asS'environmentally'
p5413
(lp5414
S'CONTACT_INFO:url'
p5415
aS'CONTACT_INFO'
p5416
asS'developer'
p5417
(lp5418
S'PERSON'
p5419
asS'member'
p5420
(lp5421
S'PERSON'
p5422
asS'Stein'
p5423
(lp5424
S'PERSON'
p5425
asS'continued'
p5426
(lp5427
S'GPE:CITY'
p5428
aS'GPE'
p5429
aS'LOCATION'
p5430
aS'GPE:COUNTRY'
p5431
asS'Touche Ross'
p5432
(lp5433
S'ORGANIZATION'
p5434
aS'ORGANIZATION:CORPORATION'
p5435
asS'Carnegie'
p5436
(lp5437
S'PERSON'
p5438
asS'late'
p5439
(lp5440
S'SUBSTANCE:DRUG'
p5441
aS'SUBSTANCE'
p5442
aS'DISEASE'
p5443
asS'Weitz'
p5444
(lp5445
S'PERSON'
p5446
asS'Thomas Foley'
p5447
(lp5448
S'PERSON'
p5449
asS'Brussels'
p5450
(lp5451
S'GPE'
p5452
aS'LOCATION'
p5453
aS'GPE:CITY'
p5454
asS'Moody'
p5455
(lp5456
S'ORGANIZATION'
p5457
aS'ORGANIZATION:CORPORATION'
p5458
aS'PERSON'
p5459
asS'fool'
p5460
(lp5461
S'PERSON'
p5462
asS'asbestosis'
p5463
(lp5464
S'DISEASE'
p5465
asS'Che Guevara'
p5466
(lp5467
S'PERSON'
p5468
aS'ORGANIZATION'
p5469
aS'ORGANIZATION:CORPORATION'
p5470
asS'Charlotte'
p5471
(lp5472
S'GPE'
p5473
aS'GPE:CITY'
p5474
asS'Michael'
p5475
(lp5476
S'PERSON'
p5477
asS'baby boomers'
p5478
(lp5479
S'EVENT'
p5480
asS'Robert Gates'
p5481
(lp5482
S'PERSON'
p5483
asS'skipper'
p5484
(lp5485
S'PERSON'
p5486
asS'Vatican'
p5487
(lp5488
S'GPE:CITY'
p5489
aS'GPE'
p5490
aS'FACILITY:ATTRACTION'
p5491
aS'GPE:COUNTRY'
p5492
aS'FACILITY'
p5493
asS'sweeping'
p5494
(lp5495
S'EVENT'
p5496
aS'EVENT:WAR'
p5497
asS'Bam'
p5498
(lp5499
S'PERSON'
p5500
asS'Mogadishu'
p5501
(lp5502
S'GPE'
p5503
aS'GPE:CITY'
p5504
asS'Taipei'
p5505
(lp5506
S'GPE'
p5507
aS'LOCATION:REGION'
p5508
aS'LOCATION'
p5509
aS'GPE:COUNTRY'
p5510
asS'mathematician'
p5511
(lp5512
S'PERSON'
p5513
asS'Silver'
p5514
(lp5515
S'SUBSTANCE:DRUG'
p5516
aS'SUBSTANCE'
p5517
aS'SUBSTANCE:CHEMICAL'
p5518
asS'Marist College'
p5519
(lp5520
S'ORGANIZATION'
p5521
aS'ORGANIZATION:EDUCATIONAL'
p5522
aS'ORGANIZATION:CORPORATION'
p5523
asS'Council'
p5524
(lp5525
S'ORGANIZATION'
p5526
aS'ORGANIZATION:CORPORATION'
p5527
aS'PERSON'
p5528
asS'Benda'
p5529
(lp5530
S'PERSON'
p5531
asS'biscuits'
p5532
(lp5533
S'PRODUCT'
p5534
aS'SUBSTANCE'
p5535
aS'SUBSTANCE:FOOD'
p5536
asS'trailer'
p5537
(lp5538
S'PRODUCT:VEHICLE'
p5539
aS'PRODUCT'
p5540
asS'investigators'
p5541
(lp5542
S'PERSON'
p5543
asS'Wall Street'
p5544
(lp5545
S'ORGANIZATION'
p5546
asS'Gutenberghus'
p5547
(lp5548
S'ORGANIZATION'
p5549
aS'ORGANIZATION:CORPORATION'
p5550
asS'carbon dioxide'
p5551
(lp5552
S'SUBSTANCE:DRUG'
p5553
aS'SUBSTANCE'
p5554
aS'SUBSTANCE:CHEMICAL'
p5555
asS'Spiegel'
p5556
(lp5557
S'WORK_OF_ART:BOOK'
p5558
aS'WORK_OF_ART'
p5559
asS'U.S. attorney'
p5560
(lp5561
S'PERSON'
p5562
asS'Butcher'
p5563
(lp5564
S'PERSON'
p5565
asS'engaging'
p5566
(lp5567
S'PERSON'
p5568
asS'trial lawyers'
p5569
(lp5570
S'PERSON'
p5571
asS'Joseph'
p5572
(lp5573
S'PERSON'
p5574
asS'More'
p5575
(lp5576
S'PERSON'
p5577
asS'anxious'
p5578
(lp5579
S'DISEASE'
p5580
asS'credit ratings'
p5581
(lp5582
S'ORGANIZATION'
p5583
aS'ORGANIZATION:CORPORATION'
p5584
aS'PERSON'
p5585
asS'Lawyers'
p5586
(lp5587
S'PERSON'
p5588
asS'midcontinent'
p5589
(lp5590
S'ORGANIZATION'
p5591
aS'ORGANIZATION:CORPORATION'
p5592
asS'Everett'
p5593
(lp5594
S'PERSON'
p5595
asS'Samuel'
p5596
(lp5597
S'WORK_OF_ART:BOOK'
p5598
aS'WORK_OF_ART'
p5599
asS'publish'
p5600
(lp5601
S'PERSON'
p5602
asS'acting'
p5603
(lp5604
S'PERSON'
p5605
asS'political contributions'
p5606
(lp5607
S'PERSON'
p5608
asS'Report'
p5609
(lp5610
S'WORK_OF_ART:BOOK'
p5611
aS'WORK_OF_ART'
p5612
asS'Yiddish'
p5613
(lp5614
S'LANGUAGE'
p5615
asS'Deane'
p5616
(lp5617
S'PERSON'
p5618
asS'None'
p5619
(lp5620
S'WORK_OF_ART:BOOK'
p5621
aS'WORK_OF_ART'
p5622
asS'Sports Illustrated'
p5623
(lp5624
S'WORK_OF_ART:BOOK'
p5625
aS'ORGANIZATION'
p5626
aS'ORGANIZATION:CORPORATION'
p5627
aS'WORK_OF_ART'
p5628
aS'PERSON'
p5629
asS'SHV'
p5630
(lp5631
S'ORGANIZATION'
p5632
aS'ORGANIZATION:CORPORATION'
p5633
asS'American Stock Exchange'
p5634
(lp5635
S'ORGANIZATION'
p5636
aS'ORGANIZATION:CORPORATION'
p5637
asS'According'
p5638
(lp5639
S'WORK_OF_ART'
p5640
aS'WORK_OF_ART:SONG'
p5641
asS'Amoco Canada'
p5642
(lp5643
S'ORGANIZATION'
p5644
aS'ORGANIZATION:CORPORATION'
p5645
asS'United States'
p5646
(lp5647
S'PERSON'
p5648
aS'ORGANIZATION'
p5649
aS'ORGANIZATION:GOVERNMENT'
p5650
asS'President Carter'
p5651
(lp5652
S'PERSON'
p5653
asS'members'
p5654
(lp5655
S'PERSON'
p5656
asS'imagine'
p5657
(lp5658
S'WORK_OF_ART'
p5659
aS'WORK_OF_ART:SONG'
p5660
asS'Atlantic Richfield Co.'
p5661
(lp5662
S'ORGANIZATION'
p5663
aS'ORGANIZATION:CORPORATION'
p5664
asS'guy'
p5665
(lp5666
S'PERSON'
p5667
aS'EVENT'
p5668
asS'school administrators'
p5669
(lp5670
S'PERSON'
p5671
asS'revolutionary'
p5672
(lp5673
S'EVENT'
p5674
aS'EVENT:WAR'
p5675
asS'II'
p5676
(lp5677
S'EVENT'
p5678
aS'EVENT:WAR'
p5679
asS'Congress'
p5680
(lp5681
S'PERSON'
p5682
aS'ORGANIZATION'
p5683
aS'ORGANIZATION:GOVERNMENT'
p5684
asS'Evans'
p5685
(lp5686
S'PERSON'
p5687
asS'People'
p5688
(lp5689
S'WORK_OF_ART:BOOK'
p5690
aS'WORK_OF_ART'
p5691
asS'Boston'
p5692
(lp5693
S'GPE'
p5694
aS'GPE:CITY'
p5695
asS'MGM'
p5696
(lp5697
S'ORGANIZATION'
p5698
aS'ORGANIZATION:CORPORATION'
p5699
aS'PERSON'
p5700
asS'Lorillard Inc.'
p5701
(lp5702
S'ORGANIZATION'
p5703
aS'ORGANIZATION:CORPORATION'
p5704
asS'Control Data Corp.'
p5705
(lp5706
S'ORGANIZATION'
p5707
aS'ORGANIZATION:CORPORATION'
p5708
asS'expecting'
p5709
(lp5710
S'DISEASE'
p5711
asS'The State Department'
p5712
(lp5713
S'ORGANIZATION'
p5714
aS'ORGANIZATION:CORPORATION'
p5715
aS'ORGANIZATION:GOVERNMENT'
p5716
asS'Hondas'
p5717
(lp5718
S'ORGANIZATION'
p5719
aS'ORGANIZATION:CORPORATION'
p5720
asS'fallen'
p5721
(lp5722
S'EVENT'
p5723
aS'EVENT:WAR'
p5724
asS'Economy Minister'
p5725
(lp5726
S'PERSON'
p5727
asS'copper'
p5728
(lp5729
S'SUBSTANCE:DRUG'
p5730
aS'SUBSTANCE'
p5731
aS'SUBSTANCE:CHEMICAL'
p5732
asS'major'
p5733
(lp5734
S'PERSON'
p5735
asS'Oklahoma'
p5736
(lp5737
S'GPE'
p5738
aS'GPE:CITY'
p5739
asS'Imo'
p5740
(lp5741
S'LOCATION'
p5742
asS'Mannesmann AG'
p5743
(lp5744
S'ORGANIZATION'
p5745
aS'ORGANIZATION:CORPORATION'
p5746
asS'horse'
p5747
(lp5748
S'PLANT'
p5749
aS'ANIMAL'
p5750
asS'Transportation'
p5751
(lp5752
S'ORGANIZATION'
p5753
aS'ORGANIZATION:GOVERNMENT'
p5754
asS'Chevy Chase'
p5755
(lp5756
S'PERSON'
p5757
asS'revive'
p5758
(lp5759
S'SUBSTANCE:DRUG'
p5760
aS'SUBSTANCE'
p5761
asS'Altman'
p5762
(lp5763
S'PERSON'
p5764
asS'Giraffe'
p5765
(lp5766
S'PLANT'
p5767
aS'ANIMAL'
p5768
asS'marble'
p5769
(lp5770
S'SUBSTANCE'
p5771
asS'Belgium'
p5772
(lp5773
S'GPE'
p5774
aS'GPE:COUNTRY'
p5775
asS'IF'
p5776
(lp5777
S'PERSON'
p5778
asS'Policy Review'
p5779
(lp5780
S'WORK_OF_ART:BOOK'
p5781
aS'WORK_OF_ART'
p5782
asS'William McDonough'
p5783
(lp5784
S'PERSON'
p5785
asS'Dartmouth College'
p5786
(lp5787
S'ORGANIZATION'
p5788
aS'ORGANIZATION:EDUCATIONAL'
p5789
asS'dethroned'
p5790
(lp5791
S'ORGANIZATION'
p5792
aS'ORGANIZATION:CORPORATION'
p5793
asS'Candlestick Park'
p5794
(lp5795
S'FACILITY:BUILDING'
p5796
aS'FACILITY'
p5797
asS'treasurer'
p5798
(lp5799
S'PERSON'
p5800
asS'Hanson'
p5801
(lp5802
S'ORGANIZATION'
p5803
aS'ORGANIZATION:CORPORATION'
p5804
asS'translation'
p5805
(lp5806
S'PERSON'
p5807
asS'investment adviser'
p5808
(lp5809
S'PERSON'
p5810
asS'scheme'
p5811
(lp5812
S'PERSON'
p5813
asS'Defense Department'
p5814
(lp5815
S'ORGANIZATION'
p5816
aS'ORGANIZATION:CORPORATION'
p5817
aS'PERSON'
p5818
aS'ORGANIZATION:GOVERNMENT'
p5819
asS'Fluor Corp.'
p5820
(lp5821
S'ORGANIZATION'
p5822
aS'ORGANIZATION:CORPORATION'
p5823
asS'Partnership'
p5824
(lp5825
S'PERSON'
p5826
asS'ranging'
p5827
(lp5828
S'PRODUCT'
p5829
aS'PRODUCT:WEAPON'
p5830
asS'Senate'
p5831
(lp5832
S'PERSON'
p5833
aS'ORGANIZATION'
p5834
aS'ORGANIZATION:GOVERNMENT'
p5835
asS'New Orleans'
p5836
(lp5837
S'GPE'
p5838
aS'LOCATION'
p5839
aS'GPE:CITY'
p5840
asS'S.C.'
p5841
(lp5842
S'GPE:STATE_PROVINCE'
p5843
aS'GPE'
p5844
aS'LOCATION'
p5845
asS'budget director'
p5846
(lp5847
S'ORGANIZATION'
p5848
aS'ORGANIZATION:GOVERNMENT'
p5849
asS'The National'
p5850
(lp5851
S'WORK_OF_ART:BOOK'
p5852
aS'WORK_OF_ART'
p5853
asS'James River'
p5854
(lp5855
S'LOCATION'
p5856
aS'LOCATION:RIVER'
p5857
asS'3M'
p5858
(lp5859
S'ORGANIZATION'
p5860
aS'ORGANIZATION:CORPORATION'
p5861
asS'God'
p5862
(lp5863
S'PERSON'
p5864
asS'Prime Minister'
p5865
(lp5866
S'PERSON'
p5867
asS'Catch-22'
p5868
(lp5869
S'WORK_OF_ART:BOOK'
p5870
aS'WORK_OF_ART'
p5871
asS'oil production'
p5872
(lp5873
S'SUBSTANCE:DRUG'
p5874
aS'SUBSTANCE'
p5875
aS'SUBSTANCE:CHEMICAL'
p5876
asS'Crude'
p5877
(lp5878
S'SUBSTANCE:DRUG'
p5879
aS'SUBSTANCE'
p5880
aS'SUBSTANCE:CHEMICAL'
p5881
asS'soft drinks'
p5882
(lp5883
S'PRODUCT'
p5884
aS'SUBSTANCE'
p5885
aS'SUBSTANCE:FOOD'
p5886
asS'chief financial officer'
p5887
(lp5888
S'PERSON'
p5889
asS'depending'
p5890
(lp5891
S'WORK_OF_ART'
p5892
aS'WORK_OF_ART:SONG'
p5893
asS'Iceland'
p5894
(lp5895
S'GPE'
p5896
aS'GPE:COUNTRY'
p5897
asS'officers'
p5898
(lp5899
S'PERSON'
p5900
asS'majority'
p5901
(lp5902
S'PERSON'
p5903
asS'Walmart'
p5904
(lp5905
S'ORGANIZATION'
p5906
aS'ORGANIZATION:CORPORATION'
p5907
asS'Germany'
p5908
(lp5909
S'GPE'
p5910
aS'GPE:CITY'
p5911
asS'chairman'
p5912
(lp5913
S'PERSON'
p5914
asS'South Carolina'
p5915
(lp5916
S'GPE:STATE_PROVINCE'
p5917
aS'GPE'
p5918
aS'LOCATION'
p5919
asS'Mayor Koch'
p5920
(lp5921
S'PERSON'
p5922
asS'Rage'
p5923
(lp5924
S'PERSON'
p5925
aS'ORGANIZATION'
p5926
asS'eggs'
p5927
(lp5928
S'PRODUCT'
p5929
aS'SUBSTANCE'
p5930
aS'SUBSTANCE:FOOD'
p5931
asS'salmon'
p5932
(lp5933
S'PRODUCT'
p5934
aS'SUBSTANCE'
p5935
aS'SUBSTANCE:FOOD'
p5936
asS'Sigmund'
p5937
(lp5938
S'PERSON'
p5939
asS'Grain'
p5940
(lp5941
S'SUBSTANCE'
p5942
aS'SUBSTANCE:FOOD'
p5943
asS'seasons'
p5944
(lp5945
S'EVENT'
p5946
asS'The'
p5947
(lp5948
S'WORK_OF_ART:BOOK'
p5949
aS'ORGANIZATION'
p5950
aS'WORK_OF_ART'
p5951
aS'PERSON'
p5952
aS'ORGANIZATION:CORPORATION'
p5953
asS'approved'
p5954
(lp5955
S'PERSON'
p5956
asS'Elf Aquitaine'
p5957
(lp5958
S'ORGANIZATION'
p5959
aS'ORGANIZATION:CORPORATION'
p5960
asS'George Halas'
p5961
(lp5962
S'PERSON'
p5963
asS'Larry King'
p5964
(lp5965
S'PERSON'
p5966
asS'Richard Ravitch'
p5967
(lp5968
S'PERSON'
p5969
asS'Martin Scorsese'
p5970
(lp5971
S'PERSON'
p5972
asS'clear'
p5973
(lp5974
S'DISEASE'
p5975
asS'Johns'
p5976
(lp5977
S'PERSON'
p5978
asS'vice chairman'
p5979
(lp5980
S'PERSON'
p5981
asS'traditional'
p5982
(lp5983
S'SUBSTANCE:DRUG'
p5984
aS'PERSON'
p5985
aS'SUBSTANCE'
p5986
asS'cabinet members'
p5987
(lp5988
S'PERSON'
p5989
asS'Robinson'
p5990
(lp5991
S'GPE'
p5992
aS'PERSON'
p5993
aS'GPE:CITY'
p5994
asS'Zuckerman'
p5995
(lp5996
S'PERSON'
p5997
asS'San Diego'
p5998
(lp5999
S'GPE'
p6000
aS'GPE:CITY'
p6001
asS'Grease 2'
p6002
(lp6003
S'WORK_OF_ART'
p6004
asS'Lillo'
p6005
(lp6006
S'PERSON'
p6007
asS'Suits'
p6008
(lp6009
S'PERSON'
p6010
asS'Oracle'
p6011
(lp6012
S'PERSON'
p6013
aS'ORGANIZATION'
p6014
aS'ORGANIZATION:CORPORATION'
p6015
asS'booze'
p6016
(lp6017
S'SUBSTANCE'
p6018
aS'SUBSTANCE:CHEMICAL'
p6019
asS'session'
p6020
(lp6021
S'PERSON'
p6022
asS'Hill'
p6023
(lp6024
S'PERSON'
p6025
asS'Mengistu'
p6026
(lp6027
S'PERSON'
p6028
asS'Dartmouth'
p6029
(lp6030
S'ORGANIZATION'
p6031
aS'ORGANIZATION:EDUCATIONAL'
p6032
asS'Lilly'
p6033
(lp6034
S'ORGANIZATION'
p6035
aS'ORGANIZATION:CORPORATION'
p6036
asS'gilded'
p6037
(lp6038
S'SUBSTANCE:DRUG'
p6039
aS'SUBSTANCE'
p6040
aS'SUBSTANCE:CHEMICAL'
p6041
asS'Redmond'
p6042
(lp6043
S'GPE'
p6044
aS'GPE:CITY'
p6045
asS'Nationwide'
p6046
(lp6047
S'ORGANIZATION'
p6048
aS'ORGANIZATION:CORPORATION'
p6049
asS'nervous'
p6050
(lp6051
S'DISEASE'
p6052
asS'writes'
p6053
(lp6054
S'PERSON'
p6055
asS'writer'
p6056
(lp6057
S'PERSON'
p6058
asS'French'
p6059
(lp6060
S'GPE'
p6061
aS'GPE:COUNTRY'
p6062
asS'Caterpillar'
p6063
(lp6064
S'ORGANIZATION'
p6065
aS'ORGANIZATION:CORPORATION'
p6066
aS'PERSON'
p6067
asS'surveyed'
p6068
(lp6069
S'PERSON'
p6070
asS'removable'
p6071
(lp6072
S'SUBSTANCE:DRUG'
p6073
aS'SUBSTANCE'
p6074
asS'Fiat'
p6075
(lp6076
S'ORGANIZATION'
p6077
aS'ORGANIZATION:CORPORATION'
p6078
asS'dependent'
p6079
(lp6080
S'DISEASE'
p6081
asS'lawyers'
p6082
(lp6083
S'PERSON'
p6084
asS'trees'
p6085
(lp6086
S'PLANT'
p6087
aS'SUBSTANCE'
p6088
asS'National Security'
p6089
(lp6090
S'PERSON'
p6091
asS'reporters'
p6092
(lp6093
S'PERSON'
p6094
asS'Nixdorf Computer AG'
p6095
(lp6096
S'ORGANIZATION'
p6097
aS'ORGANIZATION:CORPORATION'
p6098
asS'PerkinElmer'
p6099
(lp6100
S'ORGANIZATION'
p6101
aS'ORGANIZATION:CORPORATION'
p6102
asS'Matra'
p6103
(lp6104
S'ORGANIZATION'
p6105
aS'ORGANIZATION:CORPORATION'
p6106
asS'Octel Communications'
p6107
(lp6108
S'ORGANIZATION'
p6109
aS'ORGANIZATION:CORPORATION'
p6110
asS'performers'
p6111
(lp6112
S'PERSON'
p6113
asS'Marine Corps'
p6114
(lp6115
S'ORGANIZATION'
p6116
aS'ORGANIZATION:CORPORATION'
p6117
aS'PERSON'
p6118
aS'ORGANIZATION:GOVERNMENT'
p6119
asS'doubled'
p6120
(lp6121
S'PERSON'
p6122
asS'investigate'
p6123
(lp6124
S'ORGANIZATION'
p6125
aS'ORGANIZATION:CORPORATION'
p6126
asS'Cananea'
p6127
(lp6128
S'GPE'
p6129
aS'GPE:CITY'
p6130
asS'activity'
p6131
(lp6132
S'SUBSTANCE:DRUG'
p6133
aS'SUBSTANCE'
p6134
asS'Dalton'
p6135
(lp6136
S'GPE'
p6137
aS'GPE:CITY'
p6138
asS'tanker'
p6139
(lp6140
S'SUBSTANCE'
p6141
aS'SUBSTANCE:FOOD'
p6142
asS'Rochester'
p6143
(lp6144
S'GPE'
p6145
aS'GPE:CITY'
p6146
asS'Big Board'
p6147
(lp6148
S'ORGANIZATION'
p6149
asS'The move'
p6150
(lp6151
S'PERSON'
p6152
aS'ORGANIZATION'
p6153
asS'Knoxville'
p6154
(lp6155
S'GPE'
p6156
aS'GPE:CITY'
p6157
asS'Fox'
p6158
(lp6159
S'PERSON'
p6160
aS'ORGANIZATION'
p6161
aS'ORGANIZATION:CORPORATION'
p6162
asS'France'
p6163
(lp6164
S'GPE'
p6165
aS'GPE:COUNTRY'
p6166
asS'running scared'
p6167
(lp6168
S'WORK_OF_ART'
p6169
asS'Goldman Sachs'
p6170
(lp6171
S'ORGANIZATION'
p6172
aS'ORGANIZATION:CORPORATION'
p6173
asS'spirits'
p6174
(lp6175
S'SUBSTANCE'
p6176
aS'SUBSTANCE:CHEMICAL'
p6177
asS'expert'
p6178
(lp6179
S'PERSON'
p6180
asS'Jarrett'
p6181
(lp6182
S'PERSON'
p6183
asS'muted'
p6184
(lp6185
S'DISEASE'
p6186
asS'New York City'
p6187
(lp6188
S'GPE:CITY'
p6189
aS'GPE'
p6190
aS'LOCATION'
p6191
aS'ORGANIZATION'
p6192
aS'ORGANIZATION:CORPORATION'
p6193
asS'freshmen'
p6194
(lp6195
S'PERSON'
p6196
asS'prime contractor'
p6197
(lp6198
S'PERSON'
p6199
asS'pickup'
p6200
(lp6201
S'PRODUCT:VEHICLE'
p6202
aS'PRODUCT'
p6203
asS'Officials'
p6204
(lp6205
S'PERSON'
p6206
asS'John Sununu'
p6207
(lp6208
S'PERSON'
p6209
asS'Terry'
p6210
(lp6211
S'PERSON'
p6212
asS'assistants'
p6213
(lp6214
S'PERSON'
p6215
asS'Michelle Pfeiffer'
p6216
(lp6217
S'PERSON'
p6218
asS'Commerzbank'
p6219
(lp6220
S'ORGANIZATION'
p6221
aS'ORGANIZATION:CORPORATION'
p6222
asS'knowing'
p6223
(lp6224
S'PERSON'
p6225
asS'marketing executives'
p6226
(lp6227
S'PERSON'
p6228
asS'attention'
p6229
(lp6230
S'DISEASE'
p6231
asS'Florida'
p6232
(lp6233
S'GPE'
p6234
aS'GPE:CITY'
p6235
asS'Burt Sugarman'
p6236
(lp6237
S'PERSON'
p6238
asS'drinking water'
p6239
(lp6240
S'SUBSTANCE'
p6241
aS'SUBSTANCE:FOOD'
p6242
asS'go-ahead'
p6243
(lp6244
S'ORGANIZATION'
p6245
aS'ORGANIZATION:CORPORATION'
p6246
asS'legislature'
p6247
(lp6248
S'ORGANIZATION'
p6249
aS'ORGANIZATION:GOVERNMENT'
p6250
asS'Arafat'
p6251
(lp6252
S'PERSON'
p6253
asS'Brouwer'
p6254
(lp6255
S'PERSON'
p6256
asS'annual'
p6257
(lp6258
S'LAW'
p6259
asS'Iran'
p6260
(lp6261
S'PERSON'
p6262
asS'federal judge'
p6263
(lp6264
S'ORGANIZATION'
p6265
aS'ORGANIZATION:GOVERNMENT'
p6266
asS'Wan'
p6267
(lp6268
S'GPE:STATE_PROVINCE'
p6269
aS'GPE'
p6270
aS'LOCATION'
p6271
asS'Friday'
p6272
(lp6273
S'EVENT'
p6274
asS'Western Union'
p6275
(lp6276
S'ORGANIZATION'
p6277
aS'ORGANIZATION:CORPORATION'
p6278
asS'headed'
p6279
(lp6280
S'PERSON'
p6281
asS'sweet'
p6282
(lp6283
S'SUBSTANCE'
p6284
aS'SUBSTANCE:FOOD'
p6285
asS'Panama'
p6286
(lp6287
S'GPE'
p6288
aS'EVENT'
p6289
aS'LOCATION'
p6290
aS'EVENT:WAR'
p6291
aS'GPE:COUNTRY'
p6292
asS'Mr'
p6293
(lp6294
S'PERSON'
p6295
asS'Dallas'
p6296
(lp6297
S'GPE'
p6298
aS'GPE:CITY'
p6299
asS'company directors'
p6300
(lp6301
S'PERSON'
p6302
asS'agents'
p6303
(lp6304
S'PERSON'
p6305
asS'Santa Ana'
p6306
(lp6307
S'GPE'
p6308
aS'GPE:CITY'
p6309
asS'Bougainville'
p6310
(lp6311
S'GPE'
p6312
asS'Capital Group'
p6313
(lp6314
S'ORGANIZATION'
p6315
aS'ORGANIZATION:CORPORATION'
p6316
asS'Disney'
p6317
(lp6318
S'PERSON'
p6319
aS'ORGANIZATION'
p6320
aS'ORGANIZATION:CORPORATION'
p6321
asS'headaches'
p6322
(lp6323
S'DISEASE'
p6324
asS'platinum'
p6325
(lp6326
S'SUBSTANCE'
p6327
aS'SUBSTANCE:CHEMICAL'
p6328
asS'Leaning Tower'
p6329
(lp6330
S'FACILITY:ATTRACTION'
p6331
aS'FACILITY:BUILDING'
p6332
aS'FACILITY'
p6333
asS'raise'
p6334
(lp6335
S'PERSON'
p6336
asS'Students'
p6337
(lp6338
S'PERSON'
p6339
asS'Nancy Sinatra'
p6340
(lp6341
S'PERSON'
p6342
asS'Stephen Wozniak'
p6343
(lp6344
S'PERSON'
p6345
asS'Col.'
p6346
(lp6347
S'PERSON'
p6348
asS'Most'
p6349
(lp6350
S'GPE'
p6351
aS'GPE:CITY'
p6352
asS'faithfully'
p6353
(lp6354
S'WORK_OF_ART'
p6355
aS'WORK_OF_ART:SONG'
p6356
asS'California'
p6357
(lp6358
S'GPE:STATE_PROVINCE'
p6359
aS'GPE'
p6360
aS'LOCATION'
p6361
asS'Moss'
p6362
(lp6363
S'GPE'
p6364
aS'GPE:CITY'
p6365
asS'London Times'
p6366
(lp6367
S'WORK_OF_ART:BOOK'
p6368
aS'ORGANIZATION'
p6369
aS'WORK_OF_ART'
p6370
aS'ORGANIZATION:CORPORATION'
p6371
asS'Middle Ages'
p6372
(lp6373
S'EVENT'
p6374
asS'Care'
p6375
(lp6376
S'PERSON'
p6377
asS'settling'
p6378
(lp6379
S'PERSON'
p6380
asS'President Nixon'
p6381
(lp6382
S'PERSON'
p6383
asS'Perch'
p6384
(lp6385
S'PLANT'
p6386
asS'HUD Secretary'
p6387
(lp6388
S'PERSON'
p6389
asS'fund'
p6390
(lp6391
S'PERSON'
p6392
asS'Defense Secretary'
p6393
(lp6394
S'PERSON'
p6395
asS'Douglas'
p6396
(lp6397
S'ORGANIZATION'
p6398
aS'ORGANIZATION:CORPORATION'
p6399
asS'resisted'
p6400
(lp6401
S'EVENT'
p6402
aS'EVENT:WAR'
p6403
asS'Michel'
p6404
(lp6405
S'PERSON'
p6406
asS'likened'
p6407
(lp6408
S'WORK_OF_ART'
p6409
asS'Old'
p6410
(lp6411
S'WORK_OF_ART:BOOK'
p6412
aS'WORK_OF_ART'
p6413
asS'frozen'
p6414
(lp6415
S'SUBSTANCE'
p6416
aS'SUBSTANCE:FOOD'
p6417
asS'Colo'
p6418
(lp6419
S'GPE:STATE_PROVINCE'
p6420
aS'GPE'
p6421
aS'LOCATION'
p6422
asS'enact'
p6423
(lp6424
S'PERSON'
p6425
asS'Asmara'
p6426
(lp6427
S'GPE'
p6428
aS'GPE:CITY'
p6429
asS'Miss'
p6430
(lp6431
S'GPE:STATE_PROVINCE'
p6432
aS'GPE'
p6433
aS'LOCATION'
p6434
asS'Estate Agents'
p6435
(lp6436
S'PERSON'
p6437
asS'City'
p6438
(lp6439
S'GPE:CITY'
p6440
aS'GPE'
p6441
aS'LOCATION'
p6442
aS'ORGANIZATION'
p6443
aS'ORGANIZATION:CORPORATION'
p6444
asS'Italy'
p6445
(lp6446
S'GPE'
p6447
aS'LOCATION:REGION'
p6448
aS'LOCATION'
p6449
aS'GPE:COUNTRY'
p6450
asS'congressional districts'
p6451
(lp6452
S'ORGANIZATION'
p6453
aS'ORGANIZATION:GOVERNMENT'
p6454
asS'backing'
p6455
(lp6456
S'PERSON'
p6457
asS'WSJ'
p6458
(lp6459
S'WORK_OF_ART:BOOK'
p6460
aS'ORGANIZATION'
p6461
aS'WORK_OF_ART'
p6462
aS'ORGANIZATION:CORPORATION'
p6463
asS'Cheney'
p6464
(lp6465
S'PERSON'
p6466
asS'ducks'
p6467
(lp6468
S'PLANT'
p6469
aS'ANIMAL'
p6470
asS'Sinatra'
p6471
(lp6472
S'PERSON'
p6473
asS'Fletcher Challenge'
p6474
(lp6475
S'ORGANIZATION'
p6476
aS'ORGANIZATION:CORPORATION'
p6477
asS'ARCO'
p6478
(lp6479
S'ORGANIZATION'
p6480
aS'ORGANIZATION:CORPORATION'
p6481
asS'Bass Strait'
p6482
(lp6483
S'FACILITY:ATTRACTION'
p6484
aS'FACILITY'
p6485
asS'Foley'
p6486
(lp6487
S'PERSON'
p6488
asS'The NFL Players Association'
p6489
(lp6490
S'ORGANIZATION'
p6491
aS'ORGANIZATION:CORPORATION'
p6492
asS'Chicago-based'
p6493
(lp6494
S'GPE'
p6495
aS'LOCATION'
p6496
aS'GPE:CITY'
p6497
asS'choking'
p6498
(lp6499
S'DISEASE'
p6500
asS'Frederic'
p6501
(lp6502
S'PERSON'
p6503
asS'Harkin'
p6504
(lp6505
S'PERSON'
p6506
asS'attack'
p6507
(lp6508
S'EVENT'
p6509
aS'EVENT:WAR'
p6510
asS'development'
p6511
(lp6512
S'PERSON'
p6513
asS'Raymond Wong'
p6514
(lp6515
S'PERSON'
p6516
asS'Vermont'
p6517
(lp6518
S'GPE'
p6519
aS'GPE:CITY'
p6520
asS'Allianz'
p6521
(lp6522
S'ORGANIZATION'
p6523
aS'ORGANIZATION:CORPORATION'
p6524
asS'Alliant'
p6525
(lp6526
S'ORGANIZATION'
p6527
aS'ORGANIZATION:CORPORATION'
p6528
asS'defeat'
p6529
(lp6530
S'EVENT'
p6531
aS'EVENT:WAR'
p6532
asS'yesterday'
p6533
(lp6534
S'EVENT'
p6535
asS'cement'
p6536
(lp6537
S'SUBSTANCE'
p6538
asS'Afrika Korps'
p6539
(lp6540
S'ORGANIZATION'
p6541
aS'ORGANIZATION:GOVERNMENT'
p6542
asS'Some people'
p6543
(lp6544
S'GPE'
p6545
aS'GPE:COUNTRY'
p6546
asS'Carl Icahn'
p6547
(lp6548
S'PERSON'
p6549
asS'moving'
p6550
(lp6551
S'EVENT'
p6552
asS'Raleigh'
p6553
(lp6554
S'GPE'
p6555
aS'GPE:CITY'
p6556
asS'infused'
p6557
(lp6558
S'SUBSTANCE'
p6559
aS'SUBSTANCE:FOOD'
p6560
asS'Mellon Bank'
p6561
(lp6562
S'ORGANIZATION'
p6563
aS'ORGANIZATION:CORPORATION'
p6564
asS'infertility'
p6565
(lp6566
S'DISEASE'
p6567
asS'Minnesota Vikings'
p6568
(lp6569
S'PERSON'
p6570
aS'ORGANIZATION'
p6571
asS'chickens'
p6572
(lp6573
S'PLANT'
p6574
aS'ANIMAL'
p6575
asS'Sol'
p6576
(lp6577
S'LOCATION'
p6578
asS'edgy'
p6579
(lp6580
S'GAME'
p6581
asS'concrete'
p6582
(lp6583
S'SUBSTANCE'
p6584
asS'Royal Bank'
p6585
(lp6586
S'ORGANIZATION'
p6587
aS'ORGANIZATION:CORPORATION'
p6588
asS'French government'
p6589
(lp6590
S'PERSON'
p6591
aS'ORGANIZATION'
p6592
aS'ORGANIZATION:GOVERNMENT'
p6593
asS'Barilla Group'
p6594
(lp6595
S'ORGANIZATION'
p6596
aS'ORGANIZATION:CORPORATION'
p6597
asS'Agip'
p6598
(lp6599
S'ORGANIZATION'
p6600
aS'ORGANIZATION:CORPORATION'
p6601
asS'president-elect'
p6602
(lp6603
S'PERSON'
p6604
asS'Exchequer'
p6605
(lp6606
S'PERSON'
p6607
asS'chemical fertilizers'
p6608
(lp6609
S'SUBSTANCE'
p6610
asS'Bernard'
p6611
(lp6612
S'PERSON'
p6613
asS'Calor'
p6614
(lp6615
S'ORGANIZATION'
p6616
aS'ORGANIZATION:CORPORATION'
p6617
asS'Washington State University'
p6618
(lp6619
S'ORGANIZATION'
p6620
aS'ORGANIZATION:EDUCATIONAL'
p6621
aS'ORGANIZATION:CORPORATION'
p6622
asS'injuries'
p6623
(lp6624
S'DISEASE'
p6625
asS'advisers'
p6626
(lp6627
S'PERSON'
p6628
asS'stainless steel'
p6629
(lp6630
S'SUBSTANCE'
p6631
asS'Football'
p6632
(lp6633
S'ORGANIZATION'
p6634
asS'guaranteed'
p6635
(lp6636
S'ORGANIZATION'
p6637
aS'ORGANIZATION:GOVERNMENT'
p6638
asS'Shearson Lehman Hutton'
p6639
(lp6640
S'ORGANIZATION'
p6641
aS'ORGANIZATION:CORPORATION'
p6642
asS'cherries'
p6643
(lp6644
S'PRODUCT'
p6645
aS'SUBSTANCE'
p6646
aS'SUBSTANCE:FOOD'
p6647
asS'Armenian Genocide'
p6648
(lp6649
S'EVENT'
p6650
aS'EVENT:WAR'
p6651
asS'Berkeley'
p6652
(lp6653
S'GPE'
p6654
aS'GPE:CITY'
p6655
asS'The agency'
p6656
(lp6657
S'WORK_OF_ART'
p6658
asS'excited'
p6659
(lp6660
S'DISEASE'
p6661
asS'surprised'
p6662
(lp6663
S'EVENT'
p6664
aS'EVENT:WAR'
p6665
asS'Both'
p6666
(lp6667
S'GPE'
p6668
aS'GPE:CITY'
p6669
asS'Hanson PLC'
p6670
(lp6671
S'ORGANIZATION'
p6672
aS'ORGANIZATION:CORPORATION'
p6673
asS'victims'
p6674
(lp6675
S'FACILITY'
p6676
aS'FACILITY:BRIDGE'
p6677
asS'Hornaday'
p6678
(lp6679
S'PERSON'
p6680
asS'San Diego Chargers'
p6681
(lp6682
S'ORGANIZATION'
p6683
asS'President Bush'
p6684
(lp6685
S'PERSON'
p6686
asS'Of'
p6687
(lp6688
S'GPE'
p6689
aS'GPE:CITY'
p6690
asS'Commons'
p6691
(lp6692
S'ORGANIZATION'
p6693
aS'ORGANIZATION:GOVERNMENT'
p6694
asS'Suisse'
p6695
(lp6696
S'GPE'
p6697
aS'GPE:COUNTRY'
p6698
asS'Air'
p6699
(lp6700
S'ORGANIZATION'
p6701
aS'ORGANIZATION:GOVERNMENT'
p6702
asS'Sandler'
p6703
(lp6704
S'PERSON'
p6705
asS'Rupert Murdoch'
p6706
(lp6707
S'PERSON'
p6708
asS'Lesko'
p6709
(lp6710
S'GPE'
p6711
aS'GPE:CITY'
p6712
asS'Great Western'
p6713
(lp6714
S'ORGANIZATION'
p6715
aS'ORGANIZATION:CORPORATION'
p6716
asS'Waltham'
p6717
(lp6718
S'GPE'
p6719
aS'LOCATION'
p6720
aS'GPE:CITY'
p6721
asS'projects'
p6722
(lp6723
S'PERSON'
p6724
asS'Latin America'
p6725
(lp6726
S'LOCATION:REGION'
p6727
aS'LOCATION'
p6728
asS'Serious Fraud Office'
p6729
(lp6730
S'ORGANIZATION'
p6731
aS'ORGANIZATION:GOVERNMENT'
p6732
asS'Cincinnati'
p6733
(lp6734
S'GPE'
p6735
aS'GPE:CITY'
p6736
asS'Boston University'
p6737
(lp6738
S'ORGANIZATION'
p6739
aS'ORGANIZATION:EDUCATIONAL'
p6740
aS'ORGANIZATION:CORPORATION'
p6741
asS'Fidel Castro'
p6742
(lp6743
S'PERSON'
p6744
asS'Whatever'
p6745
(lp6746
S'WORK_OF_ART'
p6747
aS'WORK_OF_ART:SONG'
p6748
asS'communications'
p6749
(lp6750
S'PERSON'
p6751
asS'Brookline'
p6752
(lp6753
S'GPE'
p6754
aS'GPE:CITY'
p6755
asS'Compaq Computer'
p6756
(lp6757
S'PERSON'
p6758
aS'ORGANIZATION'
p6759
aS'ORGANIZATION:CORPORATION'
p6760
asS'Charlene'
p6761
(lp6762
S'PERSON'
p6763
asS'Burmah'
p6764
(lp6765
S'ORGANIZATION'
p6766
aS'ORGANIZATION:CORPORATION'
p6767
asS'Tokyo'
p6768
(lp6769
S'ORGANIZATION:EDUCATIONAL'
p6770
aS'GPE'
p6771
aS'ORGANIZATION:CORPORATION'
p6772
aS'LOCATION'
p6773
aS'GPE:CITY'
p6774
aS'ORGANIZATION'
p6775
asS'wrack'
p6776
(lp6777
S'PRODUCT'
p6778
aS'SUBSTANCE'
p6779
aS'SUBSTANCE:FOOD'
p6780
asS'Gulf'
p6781
(lp6782
S'LOCATION:REGION'
p6783
aS'LOCATION'
p6784
asS'Bakersfield'
p6785
(lp6786
S'GPE'
p6787
aS'GPE:CITY'
p6788
asS'Capital Gang'
p6789
(lp6790
S'WORK_OF_ART'
p6791
asS'delegation'
p6792
(lp6793
S'PERSON'
p6794
asS'candy'
p6795
(lp6796
S'SUBSTANCE'
p6797
aS'SUBSTANCE:FOOD'
p6798
asS'sugar mills'
p6799
(lp6800
S'PRODUCT'
p6801
aS'SUBSTANCE'
p6802
aS'SUBSTANCE:FOOD'
p6803
asS'Seoul'
p6804
(lp6805
S'GPE'
p6806
aS'LOCATION'
p6807
aS'GPE:CITY'
p6808
asS'Bay Area'
p6809
(lp6810
S'GPE'
p6811
aS'LOCATION'
p6812
aS'GPE:CITY'
p6813
asS'aerobic'
p6814
(lp6815
S'SUBSTANCE'
p6816
aS'SUBSTANCE:CHEMICAL'
p6817
asS'Moscow'
p6818
(lp6819
S'GPE'
p6820
aS'LOCATION'
p6821
aS'GPE:CITY'
p6822
asS'prop'
p6823
(lp6824
S'SUBSTANCE'
p6825
aS'SUBSTANCE:CHEMICAL'
p6826
asS'Whittle'
p6827
(lp6828
S'PERSON'
p6829
asS'general counsel'
p6830
(lp6831
S'PERSON'
p6832
asS'Massachusetts'
p6833
(lp6834
S'GPE:STATE_PROVINCE'
p6835
aS'GPE'
p6836
aS'LOCATION'
p6837
asS'convulsions'
p6838
(lp6839
S'DISEASE'
p6840
asS'Morgan Stanley'
p6841
(lp6842
S'ORGANIZATION'
p6843
aS'ORGANIZATION:CORPORATION'
p6844
aS'PERSON'
p6845
asS'Look'
p6846
(lp6847
S'WORK_OF_ART:BOOK'
p6848
aS'ORGANIZATION'
p6849
aS'WORK_OF_ART'
p6850
aS'ORGANIZATION:CORPORATION'
p6851
asS'Time magazine'
p6852
(lp6853
S'WORK_OF_ART:BOOK'
p6854
aS'ORGANIZATION'
p6855
aS'WORK_OF_ART'
p6856
aS'ORGANIZATION:CORPORATION'
p6857
asS'Economics'
p6858
(lp6859
S'ORGANIZATION'
p6860
aS'ORGANIZATION:EDUCATIONAL'
p6861
asS'Nichols'
p6862
(lp6863
S'PERSON'
p6864
asS'Times'
p6865
(lp6866
S'WORK_OF_ART:BOOK'
p6867
aS'ORGANIZATION'
p6868
aS'WORK_OF_ART'
p6869
aS'ORGANIZATION:CORPORATION'
p6870
asS'Cervantes'
p6871
(lp6872
S'PERSON'
p6873
asS'Jeane Kirkpatrick'
p6874
(lp6875
S'PERSON'
p6876
asS'Pennzoil'
p6877
(lp6878
S'ORGANIZATION'
p6879
aS'ORGANIZATION:CORPORATION'
p6880
asS'Translated'
p6881
(lp6882
S'LANGUAGE'
p6883
asS'The proposal'
p6884
(lp6885
S'WORK_OF_ART'
p6886
asS'Food Research'
p6887
(lp6888
S'WORK_OF_ART:BOOK'
p6889
aS'WORK_OF_ART'
p6890
asS'entrepreneurs'
p6891
(lp6892
S'PERSON'
p6893
asS'Roe'
p6894
(lp6895
S'EVENT'
p6896
asS'Roy'
p6897
(lp6898
S'PERSON'
p6899
asS'Soviet President'
p6900
(lp6901
S'PERSON'
p6902
asS'congressman'
p6903
(lp6904
S'PERSON'
p6905
aS'ORGANIZATION'
p6906
aS'ORGANIZATION:GOVERNMENT'
p6907
asS'death sentence'
p6908
(lp6909
S'EVENT'
p6910
aS'EVENT:WAR'
p6911
asS'Dallas Cowboys'
p6912
(lp6913
S'ORGANIZATION'
p6914
asS'NEC'
p6915
(lp6916
S'PERSON'
p6917
aS'ORGANIZATION'
p6918
aS'ORGANIZATION:CORPORATION'
p6919
asS'Catholic Healthcare West'
p6920
(lp6921
S'ORGANIZATION'
p6922
aS'ORGANIZATION:CORPORATION'
p6923
asS'Pavel'
p6924
(lp6925
S'PERSON'
p6926
asS'Quebecor'
p6927
(lp6928
S'ORGANIZATION'
p6929
aS'ORGANIZATION:CORPORATION'
p6930
asS'drifted'
p6931
(lp6932
S'SUBSTANCE'
p6933
asS'Stamford school'
p6934
(lp6935
S'ORGANIZATION'
p6936
aS'ORGANIZATION:EDUCATIONAL'
p6937
asS'Mengistu Haile Mariam'
p6938
(lp6939
S'PERSON'
p6940
asS'Detroit'
p6941
(lp6942
S'GPE'
p6943
aS'GPE:CITY'
p6944
asS'Hildebrandt'
p6945
(lp6946
S'PERSON'
p6947
asS'Marc'
p6948
(lp6949
S'PERSON'
p6950
asS'BSN'
p6951
(lp6952
S'ORGANIZATION'
p6953
aS'ORGANIZATION:CORPORATION'
p6954
asS'Texaco'
p6955
(lp6956
S'ORGANIZATION'
p6957
aS'ORGANIZATION:CORPORATION'
p6958
asS'Every'
p6959
(lp6960
S'PRODUCT:VEHICLE'
p6961
aS'PRODUCT'
p6962
asS'Koch'
p6963
(lp6964
S'ORGANIZATION'
p6965
aS'ORGANIZATION:CORPORATION'
p6966
asS'Bryan'
p6967
(lp6968
S'PERSON'
p6969
asS'The Times'
p6970
(lp6971
S'WORK_OF_ART:BOOK'
p6972
aS'ORGANIZATION'
p6973
aS'WORK_OF_ART'
p6974
aS'ORGANIZATION:CORPORATION'
p6975
asS'Nigel Lawson'
p6976
(lp6977
S'PERSON'
p6978
asS'First Boston'
p6979
(lp6980
S'ORGANIZATION'
p6981
aS'ORGANIZATION:CORPORATION'
p6982
asS'Rachel Weiss'
p6983
(lp6984
S'PERSON'
p6985
asS'Merrill Lynch Capital Markets'
p6986
(lp6987
S'ORGANIZATION'
p6988
aS'ORGANIZATION:CORPORATION'
p6989
asS'The elections'
p6990
(lp6991
S'EVENT'
p6992
asS'Switzerland'
p6993
(lp6994
S'GPE'
p6995
aS'GPE:COUNTRY'
p6996
asS'raising'
p6997
(lp6998
S'PRODUCT'
p6999
aS'SUBSTANCE'
p7000
aS'SUBSTANCE:FOOD'
p7001
asS'Withrow High School'
p7002
(lp7003
S'ORGANIZATION'
p7004
aS'FACILITY:BUILDING'
p7005
aS'ORGANIZATION:EDUCATIONAL'
p7006
aS'FACILITY'
p7007
asS'bankruptcy court'
p7008
(lp7009
S'ORGANIZATION'
p7010
aS'ORGANIZATION:GOVERNMENT'
p7011
asS'Office'
p7012
(lp7013
S'WORK_OF_ART'
p7014
asS'Jeff'
p7015
(lp7016
S'PERSON'
p7017
asS'Africa'
p7018
(lp7019
S'LOCATION'
p7020
aS'LOCATION:CONTINENT'
p7021
asS'Soon'
p7022
(lp7023
S'PERSON'
p7024
asS'Murray'
p7025
(lp7026
S'FACILITY'
p7027
aS'FACILITY:ATTRACTION'
p7028
aS'LOCATION'
p7029
aS'LOCATION:RIVER'
p7030
asS'Thatcher'
p7031
(lp7032
S'PERSON'
p7033
asS'planet'
p7034
(lp7035
S'LOCATION'
p7036
asS'Belz'
p7037
(lp7038
S'GPE'
p7039
aS'GPE:CITY'
p7040
asS'mature'
p7041
(lp7042
S'SUBSTANCE'
p7043
aS'SUBSTANCE:FOOD'
p7044
asS'United Nation'
p7045
(lp7046
S'ORGANIZATION'
p7047
aS'ORGANIZATION:CORPORATION'
p7048
aS'PERSON'
p7049
aS'ORGANIZATION:GOVERNMENT'
p7050
asS'McCaskey'
p7051
(lp7052
S'ORGANIZATION'
p7053
aS'ORGANIZATION:EDUCATIONAL'
p7054
asS'professor'
p7055
(lp7056
S'PERSON'
p7057
asS'Lang'
p7058
(lp7059
S'PERSON'
p7060
asS'Prime Time Live'
p7061
(lp7062
S'WORK_OF_ART'
p7063
asS'gunpoint'
p7064
(lp7065
S'PRODUCT'
p7066
aS'PRODUCT:WEAPON'
p7067
asS'Burmah Oil'
p7068
(lp7069
S'ORGANIZATION'
p7070
aS'ORGANIZATION:CORPORATION'
p7071
asS'To'
p7072
(lp7073
S'PERSON'
p7074
asS'Avis'
p7075
(lp7076
S'ORGANIZATION'
p7077
aS'ORGANIZATION:CORPORATION'
p7078
asS'City Hall'
p7079
(lp7080
S'FACILITY:ATTRACTION'
p7081
aS'FACILITY:BUILDING'
p7082
aS'FACILITY'
p7083
asS'Michael Milken'
p7084
(lp7085
S'PERSON'
p7086
asS'Manhattan'
p7087
(lp7088
S'LOCATION'
p7089
asS'Hambros Bank'
p7090
(lp7091
S'ORGANIZATION'
p7092
aS'ORGANIZATION:CORPORATION'
p7093
asS'Marilyn Monroe'
p7094
(lp7095
S'PERSON'
p7096
asS'technological development'
p7097
(lp7098
S'PERSON'
p7099
asS'Dan Coats'
p7100
(lp7101
S'PERSON'
p7102
asS'inchworm'
p7103
(lp7104
S'PLANT'
p7105
asS'Knight-Ridder'
p7106
(lp7107
S'ORGANIZATION'
p7108
aS'ORGANIZATION:CORPORATION'
p7109
asS'TV'
p7110
(lp7111
S'WORK_OF_ART'
p7112
asS'Spartan'
p7113
(lp7114
S'GPE:CITY'
p7115
aS'GPE'
p7116
aS'LOCATION'
p7117
aS'GPE:COUNTRY'
p7118
asS'Mary'
p7119
(lp7120
S'PERSON'
p7121
asS'occasional'
p7122
(lp7123
S'PERSON'
p7124
asS'Israelis'
p7125
(lp7126
S'GPE'
p7127
aS'GPE:CITY'
p7128
asS'chamber'
p7129
(lp7130
S'FACILITY:ATTRACTION'
p7131
aS'FACILITY:BUILDING'
p7132
aS'FACILITY'
p7133
asS'Ohio State'
p7134
(lp7135
S'ORGANIZATION'
p7136
aS'ORGANIZATION:EDUCATIONAL'
p7137
aS'ORGANIZATION:CORPORATION'
p7138
asS'nice'
p7139
(lp7140
S'GPE'
p7141
aS'LOCATION'
p7142
aS'GPE:CITY'
p7143
asS'Mary Kay'
p7144
(lp7145
S'ORGANIZATION'
p7146
aS'ORGANIZATION:CORPORATION'
p7147
asS'AN'
p7148
(lp7149
S'SUBSTANCE'
p7150
aS'SUBSTANCE:CHEMICAL'
p7151
asS'lens'
p7152
(lp7153
S'SUBSTANCE:DRUG'
p7154
aS'SUBSTANCE'
p7155
asS'mealy'
p7156
(lp7157
S'SUBSTANCE'
p7158
aS'SUBSTANCE:FOOD'
p7159
asS'Bee'
p7160
(lp7161
S'PLANT'
p7162
aS'ANIMAL'
p7163
asS'HHS'
p7164
(lp7165
S'PERSON'
p7166
aS'ORGANIZATION:GOVERNMENT'
p7167
aS'ORGANIZATION'
p7168
aS'ORGANIZATION:CORPORATION'
p7169
asS'Xinhua News Agency'
p7170
(lp7171
S'ORGANIZATION'
p7172
aS'ORGANIZATION:CORPORATION'
p7173
asS'city clerk'
p7174
(lp7175
S'PERSON'
p7176
asS'Malcolm'
p7177
(lp7178
S'PERSON'
p7179
asS'Am'
p7180
(lp7181
S'GPE'
p7182
aS'LOCATION'
p7183
aS'GPE:COUNTRY'
p7184
asS'As'
p7185
(lp7186
S'SUBSTANCE'
p7187
aS'SUBSTANCE:CHEMICAL'
p7188
asS'beverage'
p7189
(lp7190
S'PRODUCT'
p7191
aS'SUBSTANCE'
p7192
aS'SUBSTANCE:FOOD'
p7193
asS'Scott'
p7194
(lp7195
S'PERSON'
p7196
asS'Financial Services'
p7197
(lp7198
S'PERSON'
p7199
asS'Foiled'
p7200
(lp7201
S'WORK_OF_ART'
p7202
aS'WORK_OF_ART:SONG'
p7203
asS'Fidelity Investments'
p7204
(lp7205
S'ORGANIZATION'
p7206
aS'ORGANIZATION:CORPORATION'
p7207
asS'fresh'
p7208
(lp7209
S'SUBSTANCE'
p7210
aS'SUBSTANCE:FOOD'
p7211
asS'Soviets'
p7212
(lp7213
S'GPE'
p7214
aS'GPE:COUNTRY'
p7215
asS'lung cancer'
p7216
(lp7217
S'DISEASE'
p7218
asS'caribou'
p7219
(lp7220
S'PLANT'
p7221
aS'ANIMAL'
p7222
asS'Scowcroft'
p7223
(lp7224
S'PERSON'
p7225
asS'federal agency'
p7226
(lp7227
S'PERSON'
p7228
aS'ORGANIZATION'
p7229
aS'ORGANIZATION:GOVERNMENT'
p7230
asS'Warsaw'
p7231
(lp7232
S'GPE'
p7233
aS'LOCATION'
p7234
aS'GPE:CITY'
p7235
asS'Mercury'
p7236
(lp7237
S'SUBSTANCE'
p7238
aS'SUBSTANCE:CHEMICAL'
p7239
asS'Dodge'
p7240
(lp7241
S'ORGANIZATION'
p7242
aS'ORGANIZATION:CORPORATION'
p7243
asS'Scandinavian Airlines System'
p7244
(lp7245
S'ORGANIZATION'
p7246
aS'ORGANIZATION:CORPORATION'
p7247
asS'Hitachi Ltd.'
p7248
(lp7249
S'PERSON'
p7250
aS'ORGANIZATION'
p7251
aS'ORGANIZATION:CORPORATION'
p7252
asS'young'
p7253
(lp7254
S'PERSON'
p7255
asS'Super Bowls'
p7256
(lp7257
S'EVENT'
p7258
asS'Kellogg'
p7259
(lp7260
S'ORGANIZATION'
p7261
aS'ORGANIZATION:CORPORATION'
p7262
asS'Montreal'
p7263
(lp7264
S'GPE'
p7265
aS'GPE:CITY'
p7266
asS'Brent Scowcroft'
p7267
(lp7268
S'PERSON'
p7269
asS'Cray Computer'
p7270
(lp7271
S'ORGANIZATION'
p7272
aS'ORGANIZATION:CORPORATION'
p7273
asS'Nor'
p7274
(lp7275
S'LANGUAGE'
p7276
asS'nervousness'
p7277
(lp7278
S'DISEASE'
p7279
asS'Bixby'
p7280
(lp7281
S'GPE'
p7282
aS'GPE:CITY'
p7283
asS'Young'
p7284
(lp7285
S'PERSON'
p7286
asS'Nationale'
p7287
(lp7288
S'FACILITY:HIGHWAY_STREET'
p7289
aS'FACILITY'
p7290
asS'Canadian'
p7291
(lp7292
S'GPE'
p7293
aS'GPE:COUNTRY'
p7294
asS'ficus trees'
p7295
(lp7296
S'PLANT'
p7297
aS'SUBSTANCE'
p7298
aS'SUBSTANCE:FOOD'
p7299
asS'literally'
p7300
(lp7301
S'GPE'
p7302
aS'LOCATION'
p7303
aS'GPE:COUNTRY'
p7304
asS'General Motors'
p7305
(lp7306
S'ORGANIZATION'
p7307
aS'ORGANIZATION:CORPORATION'
p7308
asS'Ambassador'
p7309
(lp7310
S'PERSON'
p7311
asS'recreation'
p7312
(lp7313
S'SUBSTANCE:DRUG'
p7314
aS'SUBSTANCE'
p7315
asS'Investors'
p7316
(lp7317
S'PERSON'
p7318
asS'Maurice'
p7319
(lp7320
S'PERSON'
p7321
asS'911'
p7322
(lp7323
S'EVENT'
p7324
aS'EVENT:WAR'
p7325
asS'American Diabetes Association'
p7326
(lp7327
S'PERSON'
p7328
aS'ORGANIZATION'
p7329
aS'ORGANIZATION:CORPORATION'
p7330
asS'Defense'
p7331
(lp7332
S'PERSON'
p7333
aS'ORGANIZATION:GOVERNMENT'
p7334
aS'ORGANIZATION:CORPORATION'
p7335
aS'ORGANIZATION'
p7336
asS'San Francisco International Airport'
p7337
(lp7338
S'FACILITY:AIRPORT'
p7339
aS'FACILITY'
p7340
asS'McCaw Cellular Communications'
p7341
(lp7342
S'ORGANIZATION'
p7343
aS'ORGANIZATION:CORPORATION'
p7344
asS'Seattle'
p7345
(lp7346
S'GPE'
p7347
aS'LOCATION'
p7348
aS'GPE:CITY'
p7349
asS'Select'
p7350
(lp7351
S'WORK_OF_ART:BOOK'
p7352
aS'WORK_OF_ART'
p7353
asS'Turkey'
p7354
(lp7355
S'GPE'
p7356
aS'GPE:COUNTRY'
p7357
asS'Neanderthal'
p7358
(lp7359
S'PLANT'
p7360
aS'ANIMAL'
p7361
asS'Turks'
p7362
(lp7363
S'GPE'
p7364
aS'GPE:COUNTRY'
p7365
asS'bleeding'
p7366
(lp7367
S'DISEASE'
p7368
asS'jump'
p7369
(lp7370
S'PERSON'
p7371
asS'State'
p7372
(lp7373
S'ORGANIZATION'
p7374
aS'ORGANIZATION:CORPORATION'
p7375
aS'ORGANIZATION:GOVERNMENT'
p7376
asS'securities firms'
p7377
(lp7378
S'PERSON'
p7379
asS'Jerry Jones'
p7380
(lp7381
S'PERSON'
p7382
asS'Margaret Thatcher'
p7383
(lp7384
S'PERSON'
p7385
asS'Maryland'
p7386
(lp7387
S'GPE:STATE_PROVINCE'
p7388
aS'GPE'
p7389
aS'LOCATION'
p7390
aS'ORGANIZATION'
p7391
aS'ORGANIZATION:CORPORATION'
p7392
asS'south'
p7393
(lp7394
S'LOCATION:REGION'
p7395
aS'LOCATION'
p7396
asS'Diamandis Communications'
p7397
(lp7398
S'ORGANIZATION'
p7399
aS'ORGANIZATION:CORPORATION'
p7400
asS'paintings'
p7401
(lp7402
S'PERSON'
p7403
asS'Olympic gold medalist'
p7404
(lp7405
S'EVENT'
p7406
asS'shivers'
p7407
(lp7408
S'WORK_OF_ART'
p7409
asS'RICHMOND'
p7410
(lp7411
S'GPE'
p7412
aS'LOCATION'
p7413
aS'GPE:CITY'
p7414
asS'waiting'
p7415
(lp7416
S'PERSON'
p7417
asS'Kimmel'
p7418
(lp7419
S'PERSON'
p7420
asS'Congressional'
p7421
(lp7422
S'PERSON'
p7423
aS'ORGANIZATION'
p7424
aS'ORGANIZATION:GOVERNMENT'
p7425
asS'gubernatorial'
p7426
(lp7427
S'PERSON'
p7428
asS'capital'
p7429
(lp7430
S'EVENT'
p7431
aS'EVENT:WAR'
p7432
asS'America'
p7433
(lp7434
S'GPE'
p7435
aS'LOCATION:REGION'
p7436
aS'LOCATION'
p7437
aS'LOCATION:CONTINENT'
p7438
aS'GPE:COUNTRY'
p7439
asS'Swift'
p7440
(lp7441
S'PERSON'
p7442
asS'Former'
p7443
(lp7444
S'WORK_OF_ART:BOOK'
p7445
aS'WORK_OF_ART'
p7446
asS'fertilization'
p7447
(lp7448
S'SUBSTANCE'
p7449
asS'Biscuit'
p7450
(lp7451
S'PRODUCT'
p7452
aS'SUBSTANCE'
p7453
aS'SUBSTANCE:FOOD'
p7454
asS'judges'
p7455
(lp7456
S'PERSON'
p7457
asS'slated'
p7458
(lp7459
S'SUBSTANCE'
p7460
asS'Prior'
p7461
(lp7462
S'PERSON'
p7463
asS'explore'
p7464
(lp7465
S'EVENT'
p7466
asS'Green'
p7467
(lp7468
S'ORGANIZATION:POLITICAL'
p7469
aS'ORGANIZATION'
p7470
asS'Internationale'
p7471
(lp7472
S'ORGANIZATION'
p7473
aS'ORGANIZATION:CORPORATION'
p7474
asS'bode'
p7475
(lp7476
S'PERSON'
p7477
asS'Bob Clarke'
p7478
(lp7479
S'PERSON'
p7480
asS'extreme'
p7481
(lp7482
S'PRODUCT'
p7483
aS'SUBSTANCE'
p7484
aS'SUBSTANCE:FOOD'
p7485
asS'Atlantic Richfield'
p7486
(lp7487
S'ORGANIZATION'
p7488
aS'ORGANIZATION:CORPORATION'
p7489
asS'great'
p7490
(lp7491
S'ORGANIZATION'
p7492
aS'ORGANIZATION:EDUCATIONAL'
p7493
asS'engage'
p7494
(lp7495
S'EVENT'
p7496
aS'EVENT:WAR'
p7497
asS'northern'
p7498
(lp7499
S'LOCATION:REGION'
p7500
aS'LOCATION'
p7501
asS'Chinese'
p7502
(lp7503
S'GPE'
p7504
aS'LANGUAGE'
p7505
aS'GPE:COUNTRY'
p7506
asS'doughnut shop'
p7507
(lp7508
S'PRODUCT'
p7509
aS'SUBSTANCE'
p7510
aS'SUBSTANCE:FOOD'
p7511
asS'technical'
p7512
(lp7513
S'PERSON'
p7514
asS'Energy'
p7515
(lp7516
S'ORGANIZATION'
p7517
aS'ORGANIZATION:GOVERNMENT'
p7518
asS'survey'
p7519
(lp7520
S'PERSON'
p7521
asS'insulin'
p7522
(lp7523
S'SUBSTANCE:DRUG'
p7524
aS'SUBSTANCE'
p7525
asS'Transportation Department'
p7526
(lp7527
S'ORGANIZATION'
p7528
aS'ORGANIZATION:GOVERNMENT'
p7529
asS'Associated'
p7530
(lp7531
S'WORK_OF_ART:BOOK'
p7532
aS'ORGANIZATION'
p7533
aS'ORGANIZATION:CORPORATION'
p7534
aS'WORK_OF_ART'
p7535
aS'PERSON'
p7536
asS'Budget Director'
p7537
(lp7538
S'ORGANIZATION'
p7539
aS'ORGANIZATION:GOVERNMENT'
p7540
asS'composed'
p7541
(lp7542
S'PERSON'
p7543
asS'Blake'
p7544
(lp7545
S'PERSON'
p7546
asS'apple'
p7547
(lp7548
S'PRODUCT'
p7549
aS'SUBSTANCE'
p7550
aS'SUBSTANCE:FOOD'
p7551
asS'Pan Am'
p7552
(lp7553
S'ORGANIZATION'
p7554
aS'ORGANIZATION:CORPORATION'
p7555
asS'Robert'
p7556
(lp7557
S'PERSON'
p7558
asS'manage'
p7559
(lp7560
S'PERSON'
p7561
asS'Pisa'
p7562
(lp7563
S'GPE'
p7564
aS'GPE:CITY'
p7565
asS'Longmont'
p7566
(lp7567
S'GPE'
p7568
aS'GPE:CITY'
p7569
asS'Brazilian'
p7570
(lp7571
S'GPE'
p7572
aS'LOCATION:REGION'
p7573
aS'LOCATION'
p7574
aS'GPE:COUNTRY'
p7575
asS'Washington State'
p7576
(lp7577
S'GPE:STATE_PROVINCE'
p7578
aS'GPE'
p7579
aS'LOCATION'
p7580
asS'Indianapolis'
p7581
(lp7582
S'GPE'
p7583
aS'LOCATION'
p7584
aS'GPE:CITY'
p7585
asS'Seagram'
p7586
(lp7587
S'ORGANIZATION'
p7588
aS'PRODUCT'
p7589
aS'ORGANIZATION:CORPORATION'
p7590
asS'breakup'
p7591
(lp7592
S'EVENT'
p7593
asS'management'
p7594
(lp7595
S'PERSON'
p7596
asS'Ann Arbor'
p7597
(lp7598
S'GPE'
p7599
aS'GPE:CITY'
p7600
asS'NATO'
p7601
(lp7602
S'PERSON'
p7603
asS'oils'
p7604
(lp7605
S'SUBSTANCE'
p7606
aS'SUBSTANCE:FOOD'
p7607
asS'possession'
p7608
(lp7609
S'PERSON'
p7610
asS'Westin'
p7611
(lp7612
S'ORGANIZATION'
p7613
aS'ORGANIZATION:CORPORATION'
p7614
asS'Laser'
p7615
(lp7616
S'SUBSTANCE:DRUG'
p7617
aS'SUBSTANCE'
p7618
asS'Denmark'
p7619
(lp7620
S'GPE'
p7621
aS'LOCATION'
p7622
aS'GPE:COUNTRY'
p7623
asS'Wednesday'
p7624
(lp7625
S'ORGANIZATION'
p7626
asS'Knight-Ridder Inc.'
p7627
(lp7628
S'ORGANIZATION'
p7629
aS'ORGANIZATION:CORPORATION'
p7630
asS'Armenian earthquake'
p7631
(lp7632
S'EVENT'
p7633
asS'Fiorello LaGuardia'
p7634
(lp7635
S'PERSON'
p7636
asS'Blackfriar'
p7637
(lp7638
S'ORGANIZATION'
p7639
aS'ORGANIZATION:RELIGIOUS'
p7640
asS'Guy'
p7641
(lp7642
S'PERSON'
p7643
aS'ORGANIZATION'
p7644
asS'Ted Turner'
p7645
(lp7646
S'PERSON'
p7647
asS'Clarence Thomas'
p7648
(lp7649
S'PERSON'
p7650
asS'DILLARD DEPARTMENT STORES'
p7651
(lp7652
S'ORGANIZATION'
p7653
aS'ORGANIZATION:CORPORATION'
p7654
asS'announcing'
p7655
(lp7656
S'PERSON'
p7657
asS'chief economist'
p7658
(lp7659
S'PERSON'
p7660
asS'commercial printer'
p7661
(lp7662
S'PERSON'
p7663
asS'condominium'
p7664
(lp7665
S'FACILITY:BUILDING'
p7666
aS'FACILITY'
p7667
asS'Rockefeller'
p7668
(lp7669
S'PERSON'
p7670
asS'Montreal Exchange'
p7671
(lp7672
S'ORGANIZATION'
p7673
aS'ORGANIZATION:CORPORATION'
p7674
asS'F.'
p7675
(lp7676
S'LANGUAGE'
p7677
asS'Edmund'
p7678
(lp7679
S'PERSON'
p7680
asS'financial planner'
p7681
(lp7682
S'PERSON'
p7683
asS'Maynard'
p7684
(lp7685
S'PERSON'
p7686
asS'apple tree'
p7687
(lp7688
S'PRODUCT'
p7689
aS'SUBSTANCE'
p7690
aS'SUBSTANCE:FOOD'
p7691
asS'high'
p7692
(lp7693
S'SUBSTANCE:DRUG'
p7694
aS'PERSON'
p7695
aS'SUBSTANCE'
p7696
aS'DISEASE'
p7697
asS'Dodson'
p7698
(lp7699
S'PERSON'
p7700
asS'Amoco'
p7701
(lp7702
S'ORGANIZATION'
p7703
aS'ORGANIZATION:CORPORATION'
p7704
asS'assumptions'
p7705
(lp7706
S'ORGANIZATION'
p7707
aS'ORGANIZATION:EDUCATIONAL'
p7708
asS'Details'
p7709
(lp7710
S'WORK_OF_ART:BOOK'
p7711
aS'WORK_OF_ART'
p7712
asS'Cleveland Browns'
p7713
(lp7714
S'ORGANIZATION'
p7715
asS'Party'
p7716
(lp7717
S'ORGANIZATION:POLITICAL'
p7718
aS'ORGANIZATION'
p7719
aS'ORGANIZATION:CORPORATION'
p7720
asS'Australian'
p7721
(lp7722
S'PERSON'
p7723
aS'GPE'
p7724
aS'ORGANIZATION:GOVERNMENT'
p7725
aS'GPE:COUNTRY'
p7726
aS'LOCATION'
p7727
aS'ORGANIZATION'
p7728
asS'Christmas'
p7729
(lp7730
S'EVENT'
p7731
asS'educational'
p7732
(lp7733
S'ORGANIZATION'
p7734
aS'ORGANIZATION:CORPORATION'
p7735
asS'provoke'
p7736
(lp7737
S'PERSON'
p7738
asS'defective'
p7739
(lp7740
S'DISEASE'
p7741
asS'forest'
p7742
(lp7743
S'PLANT'
p7744
asS'animal'
p7745
(lp7746
S'PLANT'
p7747
asS'Alaskan'
p7748
(lp7749
S'GPE:STATE_PROVINCE'
p7750
aS'GPE'
p7751
aS'LOCATION'
p7752
asS'Joel'
p7753
(lp7754
S'PERSON'
p7755
asS'Nissho Iwai'
p7756
(lp7757
S'ORGANIZATION'
p7758
aS'ORGANIZATION:CORPORATION'
p7759
asS'British'
p7760
(lp7761
S'GPE'
p7762
aS'LOCATION'
p7763
aS'GPE:COUNTRY'
p7764
asS'chiefs'
p7765
(lp7766
S'ORGANIZATION'
p7767
aS'ORGANIZATION:GOVERNMENT'
p7768
asS'Garcia'
p7769
(lp7770
S'PERSON'
p7771
asS'BellSouth'
p7772
(lp7773
S'ORGANIZATION'
p7774
aS'ORGANIZATION:CORPORATION'
p7775
asS'Russian-language'
p7776
(lp7777
S'LANGUAGE'
p7778
asS'The Members'
p7779
(lp7780
S'PERSON'
p7781
aS'ORGANIZATION'
p7782
asS'fits'
p7783
(lp7784
S'DISEASE'
p7785
asS'Apple Macintosh'
p7786
(lp7787
S'PERSON'
p7788
aS'ORGANIZATION'
p7789
aS'ORGANIZATION:CORPORATION'
p7790
asS'Peter Laird'
p7791
(lp7792
S'PERSON'
p7793
asS'World Resources Institute'
p7794
(lp7795
S'ORGANIZATION'
p7796
aS'ORGANIZATION:CORPORATION'
p7797
aS'PERSON'
p7798
asS'The Office'
p7799
(lp7800
S'WORK_OF_ART'
p7801
asS'Nashua'
p7802
(lp7803
S'GPE'
p7804
aS'GPE:CITY'
p7805
asS'CRAY'
p7806
(lp7807
S'ORGANIZATION'
p7808
aS'ORGANIZATION:CORPORATION'
p7809
asS'Kansas City Chiefs'
p7810
(lp7811
S'ORGANIZATION'
p7812
asS'One'
p7813
(lp7814
S'WORK_OF_ART'
p7815
aS'WORK_OF_ART:SONG'
p7816
asS'Middle'
p7817
(lp7818
S'LOCATION:REGION'
p7819
aS'LOCATION'
p7820
asS'chief'
p7821
(lp7822
S'PERSON'
p7823
asS'Tennessee'
p7824
(lp7825
S'GPE:STATE_PROVINCE'
p7826
aS'GPE'
p7827
aS'LOCATION'
p7828
asS'American Electric Power'
p7829
(lp7830
S'ORGANIZATION'
p7831
aS'ORGANIZATION:CORPORATION'
p7832
asS'intellectuals'
p7833
(lp7834
S'PERSON'
p7835
asS'Kings'
p7836
(lp7837
S'LOCATION'
p7838
asS'Interstate 880'
p7839
(lp7840
S'FACILITY:HIGHWAY_STREET'
p7841
aS'FACILITY'
p7842
asS'counted'
p7843
(lp7844
S'EVENT'
p7845
asS'bartenders'
p7846
(lp7847
S'PERSON'
p7848
asS'Wilson'
p7849
(lp7850
S'PERSON'
p7851
asS'producer'
p7852
(lp7853
S'PERSON'
p7854
asS'Jeopardy'
p7855
(lp7856
S'WORK_OF_ART'
p7857
asS'Smith'
p7858
(lp7859
S'PERSON'
p7860
asS'Minnesota'
p7861
(lp7862
S'GPE:STATE_PROVINCE'
p7863
aS'GPE'
p7864
aS'LOCATION'
p7865
asS'produced'
p7866
(lp7867
S'PERSON'
p7868
asS'report'
p7869
(lp7870
S'WORK_OF_ART:BOOK'
p7871
aS'WORK_OF_ART'
p7872
asS'directs'
p7873
(lp7874
S'PERSON'
p7875
asS'Developers'
p7876
(lp7877
S'PERSON'
p7878
asS'Swedish Match'
p7879
(lp7880
S'ORGANIZATION'
p7881
aS'ORGANIZATION:CORPORATION'
p7882
asS'perfect'
p7883
(lp7884
S'LANGUAGE'
p7885
asS'revived'
p7886
(lp7887
S'SUBSTANCE:DRUG'
p7888
aS'SUBSTANCE'
p7889
asS'Stanton'
p7890
(lp7891
S'GPE'
p7892
aS'LOCATION'
p7893
aS'GPE:CITY'
p7894
asS'market crash'
p7895
(lp7896
S'EVENT'
p7897
asS'Cabinet'
p7898
(lp7899
S'PERSON'
p7900
asS'Director'
p7901
(lp7902
S'PERSON'
p7903
asS'permanent'
p7904
(lp7905
S'PERSON'
p7906
asS'Doyle'
p7907
(lp7908
S'PERSON'
p7909
asS'2018'
p7910
(lp7911
S'EVENT'
p7912
asS'Bette Midler'
p7913
(lp7914
S'PERSON'
p7915
asS'Wisconsin'
p7916
(lp7917
S'GPE:STATE_PROVINCE'
p7918
aS'GPE'
p7919
aS'LOCATION'
p7920
asS'Drexel Burnham Lambert'
p7921
(lp7922
S'ORGANIZATION'
p7923
aS'ORGANIZATION:CORPORATION'
p7924
asS'prosper'
p7925
(lp7926
S'GPE'
p7927
aS'GPE:CITY'
p7928
asS'Addis Ababa'
p7929
(lp7930
S'GPE'
p7931
aS'LOCATION'
p7932
aS'GPE:CITY'
p7933
asS'Hammerton'
p7934
(lp7935
S'GPE'
p7936
aS'LOCATION'
p7937
aS'GPE:CITY'
p7938
asS'Charles Shaw'
p7939
(lp7940
S'ORGANIZATION'
p7941
aS'ORGANIZATION:CORPORATION'
p7942
asS'Miami'
p7943
(lp7944
S'GPE'
p7945
aS'ORGANIZATION'
p7946
aS'GPE:CITY'
p7947
asS'material'
p7948
(lp7949
S'SUBSTANCE'
p7950
aS'SUBSTANCE:CHEMICAL'
p7951
asS'Two'
p7952
(lp7953
S'EVENT'
p7954
aS'EVENT:WAR'
p7955
asS'Can'
p7956
(lp7957
S'GPE'
p7958
aS'GPE:COUNTRY'
p7959
asS'Caa'
p7960
(lp7961
S'ORGANIZATION'
p7962
aS'PERSON'
p7963
aS'ORGANIZATION:CORPORATION'
p7964
asS'handy'
p7965
(lp7966
S'PERSON'
p7967
asS'presidential'
p7968
(lp7969
S'PERSON'
p7970
asS'articles'
p7971
(lp7972
S'WORK_OF_ART:BOOK'
p7973
aS'WORK_OF_ART'
p7974
asS'masters'
p7975
(lp7976
S'PERSON'
p7977
asS'undertaking'
p7978
(lp7979
S'PERSON'
p7980
asS'Bancroft'
p7981
(lp7982
S'PERSON'
p7983
asS'Gary'
p7984
(lp7985
S'GPE'
p7986
aS'GPE:CITY'
p7987
asS'rising'
p7988
(lp7989
S'EVENT'
p7990
aS'EVENT:WAR'
p7991
asS'hoodwinked'
p7992
(lp7993
S'WORK_OF_ART'
p7994
asS'Specter'
p7995
(lp7996
S'PERSON'
p7997
asS'Garnett'
p7998
(lp7999
S'PERSON'
p8000
asS'Platinum'
p8001
(lp8002
S'SUBSTANCE'
p8003
aS'SUBSTANCE:CHEMICAL'
p8004
asS'federal court'
p8005
(lp8006
S'ORGANIZATION'
p8007
aS'ORGANIZATION:GOVERNMENT'
p8008
asS'Pat Sajak'
p8009
(lp8010
S'PERSON'
p8011
asS'Representatives'
p8012
(lp8013
S'ORGANIZATION'
p8014
aS'ORGANIZATION:GOVERNMENT'
p8015
asS'Minneapolis'
p8016
(lp8017
S'GPE'
p8018
aS'GPE:CITY'
p8019
asS'Treasury'
p8020
(lp8021
S'ORGANIZATION'
p8022
aS'ORGANIZATION:GOVERNMENT'
p8023
asS'banal'
p8024
(lp8025
S'WORK_OF_ART:BOOK'
p8026
aS'WORK_OF_ART'
p8027
asS'Ohio State University'
p8028
(lp8029
S'ORGANIZATION'
p8030
aS'ORGANIZATION:EDUCATIONAL'
p8031
aS'ORGANIZATION:CORPORATION'
p8032
asS'Hayward'
p8033
(lp8034
S'GPE'
p8035
aS'GPE:CITY'
p8036
asS'Chevron Corp.'
p8037
(lp8038
S'ORGANIZATION'
p8039
aS'ORGANIZATION:CORPORATION'
p8040
asS'Technical'
p8041
(lp8042
S'PERSON'
p8043
asS'China'
p8044
(lp8045
S'GPE'
p8046
aS'GPE:COUNTRY'
p8047
asS'split personality'
p8048
(lp8049
S'DISEASE'
p8050
asS'Capitol Hill'
p8051
(lp8052
S'PERSON'
p8053
aS'ORGANIZATION'
p8054
aS'ORGANIZATION:GOVERNMENT'
p8055
asS'supports'
p8056
(lp8057
S'PERSON'
p8058
asS'announced'
p8059
(lp8060
S'ORGANIZATION'
p8061
aS'ORGANIZATION:CORPORATION'
p8062
aS'PERSON'
p8063
asS'This'
p8064
(lp8065
S'PERSON'
p8066
asS'Indonesia'
p8067
(lp8068
S'GPE'
p8069
aS'LOCATION:REGION'
p8070
aS'ORGANIZATION:GOVERNMENT'
p8071
aS'GPE:COUNTRY'
p8072
aS'LOCATION'
p8073
aS'ORGANIZATION'
p8074
asS'WASHINGTON'
p8075
(lp8076
S'GPE'
p8077
aS'LOCATION'
p8078
aS'GPE:CITY'
p8079
asS'chief operating officer'
p8080
(lp8081
S'PERSON'
p8082
asS'Miguel'
p8083
(lp8084
S'PERSON'
p8085
asS'Senator'
p8086
(lp8087
S'PERSON'
p8088
aS'ORGANIZATION'
p8089
aS'ORGANIZATION:GOVERNMENT'
p8090
asS'Agnew'
p8091
(lp8092
S'PERSON'
p8093
asS'Buffalo'
p8094
(lp8095
S'GPE'
p8096
aS'GPE:CITY'
p8097
asS'bleed'
p8098
(lp8099
S'PRODUCT'
p8100
aS'SUBSTANCE'
p8101
asS'Bulgaria'
p8102
(lp8103
S'GPE'
p8104
aS'GPE:COUNTRY'
p8105
asS'prolonged labor'
p8106
(lp8107
S'SUBSTANCE:DRUG'
p8108
aS'SUBSTANCE'
p8109
asS'Angola'
p8110
(lp8111
S'EVENT'
p8112
aS'EVENT:WAR'
p8113
asS'Owen'
p8114
(lp8115
S'PERSON'
p8116
asS'federal agencies'
p8117
(lp8118
S'PERSON'
p8119
aS'ORGANIZATION'
p8120
aS'ORGANIZATION:GOVERNMENT'
p8121
asS'Telxon'
p8122
(lp8123
S'ORGANIZATION'
p8124
aS'ORGANIZATION:CORPORATION'
p8125
asS'International Business Machines Corp.'
p8126
(lp8127
S'PERSON'
p8128
aS'ORGANIZATION'
p8129
aS'ORGANIZATION:CORPORATION'
p8130
asS'Grady'
p8131
(lp8132
S'LOCATION'
p8133
asS'Ernest Hollings'
p8134
(lp8135
S'PERSON'
p8136
asS'transfer'
p8137
(lp8138
S'SUBSTANCE:DRUG'
p8139
aS'SUBSTANCE'
p8140
asS'Constant'
p8141
(lp8142
S'PERSON'
p8143
asS'Grads'
p8144
(lp8145
S'PRODUCT'
p8146
aS'PRODUCT:WEAPON'
p8147
asS'plastics'
p8148
(lp8149
S'SUBSTANCE'
p8150
asS'Yale'
p8151
(lp8152
S'ORGANIZATION'
p8153
aS'ORGANIZATION:EDUCATIONAL'
p8154
aS'ORGANIZATION:CORPORATION'
p8155
asS'Administration'
p8156
(lp8157
S'PERSON'
p8158
asS'touring'
p8159
(lp8160
S'PRODUCT:VEHICLE'
p8161
aS'PRODUCT'
p8162
asS'owned'
p8163
(lp8164
S'PERSON'
p8165
asS'Refco'
p8166
(lp8167
S'ORGANIZATION'
p8168
aS'ORGANIZATION:CORPORATION'
p8169
asS'Time Warner Inc.'
p8170
(lp8171
S'ORGANIZATION'
p8172
aS'ORGANIZATION:CORPORATION'
p8173
asS'Latin American'
p8174
(lp8175
S'LOCATION:REGION'
p8176
aS'LOCATION'
p8177
asS'Jackson'
p8178
(lp8179
S'ORGANIZATION'
p8180
aS'ORGANIZATION:CORPORATION'
p8181
asS'Small Business Administration'
p8182
(lp8183
S'ORGANIZATION'
p8184
aS'ORGANIZATION:GOVERNMENT'
p8185
asS'Capel'
p8186
(lp8187
S'GPE'
p8188
aS'LOCATION'
p8189
aS'GPE:CITY'
p8190
asS'Weinberg'
p8191
(lp8192
S'PERSON'
p8193
asS'law firm'
p8194
(lp8195
S'PERSON'
p8196
asS'ITT Corp.'
p8197
(lp8198
S'ORGANIZATION'
p8199
aS'ORGANIZATION:CORPORATION'
p8200
asS'Citicorp'
p8201
(lp8202
S'ORGANIZATION'
p8203
aS'ORGANIZATION:CORPORATION'
p8204
asS'Bayer AG'
p8205
(lp8206
S'ORGANIZATION'
p8207
aS'ORGANIZATION:CORPORATION'
p8208
asS'Chief Executive'
p8209
(lp8210
S'PERSON'
p8211
asS'Disneyland'
p8212
(lp8213
S'ORGANIZATION'
p8214
aS'FACILITY:ATTRACTION'
p8215
aS'ORGANIZATION:CORPORATION'
p8216
aS'FACILITY'
p8217
asS'Iraq'
p8218
(lp8219
S'GPE'
p8220
aS'GPE:COUNTRY'
p8221
asS'final'
p8222
(lp8223
S'EVENT'
p8224
asS'painful'
p8225
(lp8226
S'DISEASE'
p8227
asS'big'
p8228
(lp8229
S'PERSON'
p8230
aS'ORGANIZATION'
p8231
aS'ORGANIZATION:CORPORATION'
p8232
asS'Robert I'
p8233
(lp8234
S'PERSON'
p8235
asS'Robert Bass'
p8236
(lp8237
S'PERSON'
p8238
asS'Placer Dome'
p8239
(lp8240
S'ORGANIZATION'
p8241
aS'ORGANIZATION:CORPORATION'
p8242
asS'Emperor Haile Selassie'
p8243
(lp8244
S'PERSON'
p8245
asS'Ky'
p8246
(lp8247
S'GPE'
p8248
aS'GPE:CITY'
p8249
asS'Democratic'
p8250
(lp8251
S'ORGANIZATION:POLITICAL'
p8252
aS'ORGANIZATION'
p8253
asS'Beth Israel Hospital'
p8254
(lp8255
S'ORGANIZATION'
p8256
aS'ORGANIZATION:HOSPITAL'
p8257
asS'steel'
p8258
(lp8259
S'SUBSTANCE'
p8260
asS'Italiana'
p8261
(lp8262
S'ORGANIZATION'
p8263
aS'ORGANIZATION:CORPORATION'
p8264
asS'marketing manager'
p8265
(lp8266
S'PERSON'
p8267
asS'Whirpool'
p8268
(lp8269
S'ORGANIZATION'
p8270
aS'ORGANIZATION:CORPORATION'
p8271
asS'co-production'
p8272
(lp8273
S'PERSON'
p8274
asS'commandant'
p8275
(lp8276
S'PERSON'
p8277
asS'New York'
p8278
(lp8279
S'WORK_OF_ART'
p8280
aS'GPE'
p8281
aS'ORGANIZATION:CORPORATION'
p8282
aS'LOCATION'
p8283
aS'ORGANIZATION'
p8284
aS'WORK_OF_ART:BOOK'
p8285
aS'GPE:CITY'
p8286
asS'Burton'
p8287
(lp8288
S'GPE'
p8289
aS'LOCATION'
p8290
aS'GPE:CITY'
p8291
asS'free-lance writer'
p8292
(lp8293
S'PERSON'
p8294
asS'steer'
p8295
(lp8296
S'PLANT'
p8297
aS'ANIMAL'
p8298
asS'Libyans'
p8299
(lp8300
S'GPE'
p8301
aS'GPE:COUNTRY'
p8302
asS'Heritage Foundation'
p8303
(lp8304
S'ORGANIZATION'
p8305
aS'ORGANIZATION:CORPORATION'
p8306
aS'PERSON'
p8307
asS'Richard'
p8308
(lp8309
S'PERSON'
p8310
asS'Rowe'
p8311
(lp8312
S'GPE'
p8313
aS'GPE:CITY'
p8314
asS'Albert Lee'
p8315
(lp8316
S'PERSON'
p8317
asS'Pan'
p8318
(lp8319
S'PLANT'
p8320
aS'ANIMAL'
p8321
asS'Independent'
p8322
(lp8323
S'WORK_OF_ART:BOOK'
p8324
aS'ORGANIZATION'
p8325
aS'WORK_OF_ART'
p8326
aS'ORGANIZATION:CORPORATION'
p8327
asS'Oil'
p8328
(lp8329
S'SUBSTANCE:DRUG'
p8330
aS'SUBSTANCE'
p8331
aS'SUBSTANCE:CHEMICAL'
p8332
asS'Patterson'
p8333
(lp8334
S'PERSON'
p8335
asS'Fukuyama'
p8336
(lp8337
S'PERSON'
p8338
asS'Goldman'
p8339
(lp8340
S'ORGANIZATION'
p8341
aS'ORGANIZATION:CORPORATION'
p8342
asS'After'
p8343
(lp8344
S'GAME'
p8345
asS'Duane'
p8346
(lp8347
S'PERSON'
p8348
asS'Fluor'
p8349
(lp8350
S'ORGANIZATION'
p8351
aS'ORGANIZATION:CORPORATION'
p8352
asS'Provident'
p8353
(lp8354
S'ORGANIZATION'
p8355
aS'ORGANIZATION:CORPORATION'
p8356
asS'Kiss'
p8357
(lp8358
S'PERSON'
p8359
aS'ORGANIZATION'
p8360
asS'Thomson-CSF'
p8361
(lp8362
S'ORGANIZATION'
p8363
aS'ORGANIZATION:CORPORATION'
p8364
asS'Decatur'
p8365
(lp8366
S'GPE'
p8367
aS'GPE:CITY'
p8368
asS'Judith'
p8369
(lp8370
S'WORK_OF_ART:BOOK'
p8371
aS'WORK_OF_ART'
p8372
asS'Prince George'
p8373
(lp8374
S'PERSON'
p8375
asS'Michael Graves'
p8376
(lp8377
S'PERSON'
p8378
asS'advances'
p8379
(lp8380
S'EVENT'
p8381
asS'Salomon Brothers Inc.'
p8382
(lp8383
S'ORGANIZATION'
p8384
aS'ORGANIZATION:CORPORATION'
p8385
asS'Greece'
p8386
(lp8387
S'GPE'
p8388
aS'GPE:CITY'
p8389
asS'First Boston Corp.'
p8390
(lp8391
S'ORGANIZATION'
p8392
aS'ORGANIZATION:CORPORATION'
p8393
asS'accountants'
p8394
(lp8395
S'PERSON'
p8396
asS'Commerce Secretary'
p8397
(lp8398
S'PERSON'
p8399
asS'Eritreans'
p8400
(lp8401
S'GPE'
p8402
aS'GPE:COUNTRY'
p8403
asS'Credit Suisse'
p8404
(lp8405
S'ORGANIZATION'
p8406
aS'ORGANIZATION:CORPORATION'
p8407
asS'sedan'
p8408
(lp8409
S'PRODUCT:VEHICLE'
p8410
aS'PRODUCT'
p8411
asS'Ernst'
p8412
(lp8413
S'PERSON'
p8414
asS'Gregory'
p8415
(lp8416
S'PERSON'
p8417
asS'NEC Corp.'
p8418
(lp8419
S'PERSON'
p8420
aS'ORGANIZATION'
p8421
aS'ORGANIZATION:CORPORATION'
p8422
asS'Far East'
p8423
(lp8424
S'GPE'
p8425
aS'GPE:COUNTRY'
p8426
asS'Contel'
p8427
(lp8428
S'ORGANIZATION'
p8429
aS'ORGANIZATION:CORPORATION'
p8430
asS'Beverly Hills'
p8431
(lp8432
S'GPE:CITY'
p8433
aS'GPE'
p8434
aS'ORGANIZATION'
p8435
aS'ORGANIZATION:CORPORATION'
p8436
asS'Some'
p8437
(lp8438
S'PLANT'
p8439
asS'MCA'
p8440
(lp8441
S'ORGANIZATION'
p8442
aS'ORGANIZATION:CORPORATION'
p8443
asS'independent contractor'
p8444
(lp8445
S'PERSON'
p8446
asS'Donald'
p8447
(lp8448
S'PERSON'
p8449
asS'artificially'
p8450
(lp8451
S'SUBSTANCE:DRUG'
p8452
aS'SUBSTANCE'
p8453
asS'Saskatchewan'
p8454
(lp8455
S'LOCATION'
p8456
asS'American weekly'
p8457
(lp8458
S'WORK_OF_ART:BOOK'
p8459
aS'ORGANIZATION'
p8460
aS'WORK_OF_ART'
p8461
aS'ORGANIZATION:CORPORATION'
p8462
asS'Earth'
p8463
(lp8464
S'LOCATION'
p8465
asS'Banco'
p8466
(lp8467
S'WORK_OF_ART:PLAY'
p8468
aS'WORK_OF_ART'
p8469
aS'WORK_OF_ART:SONG'
p8470
asS'Paris'
p8471
(lp8472
S'GPE:CITY'
p8473
aS'GPE'
p8474
aS'LOCATION'
p8475
aS'ORGANIZATION'
p8476
aS'ORGANIZATION:CORPORATION'
p8477
asS'Release 1.0'
p8478
(lp8479
S'PERSON'
p8480
aS'ORGANIZATION'
p8481
aS'ORGANIZATION:CORPORATION'
p8482
asS'Small'
p8483
(lp8484
S'LOCATION'
p8485
asS'Oregon'
p8486
(lp8487
S'GPE:STATE_PROVINCE'
p8488
aS'GPE'
p8489
aS'LOCATION'
p8490
asS'Johnston'
p8491
(lp8492
S'GPE'
p8493
aS'GPE:CITY'
p8494
asS'soldiers'
p8495
(lp8496
S'PERSON'
p8497
asS'Regan'
p8498
(lp8499
S'WORK_OF_ART:BOOK'
p8500
aS'WORK_OF_ART'
p8501
asS'brink'
p8502
(lp8503
S'PERSON'
p8504
asS'decade'
p8505
(lp8506
S'EVENT'
p8507
asS'Ilford'
p8508
(lp8509
S'ORGANIZATION'
p8510
aS'ORGANIZATION:CORPORATION'
p8511
asS'Wells Fargo'
p8512
(lp8513
S'ORGANIZATION'
p8514
aS'ORGANIZATION:CORPORATION'
p8515
asS'hopeful'
p8516
(lp8517
S'EVENT'
p8518
asS'Thomas Jefferson'
p8519
(lp8520
S'PERSON'
p8521
asS'George Gray'
p8522
(lp8523
S'PERSON'
p8524
asS'York'
p8525
(lp8526
S'GPE'
p8527
aS'LOCATION'
p8528
aS'GPE:CITY'
p8529
asS'South Australian Government'
p8530
(lp8531
S'PERSON'
p8532
aS'ORGANIZATION'
p8533
aS'ORGANIZATION:GOVERNMENT'
p8534
asS'Giuliani'
p8535
(lp8536
S'PERSON'
p8537
asS'New'
p8538
(lp8539
S'GPE'
p8540
aS'LOCATION'
p8541
aS'GPE:COUNTRY'
p8542
asS'mayors'
p8543
(lp8544
S'PERSON'
p8545
asS'polyurethane'
p8546
(lp8547
S'SUBSTANCE'
p8548
aS'SUBSTANCE:CHEMICAL'
p8549
asS'stratagems'
p8550
(lp8551
S'PERSON'
p8552
asS'Medicines'
p8553
(lp8554
S'SUBSTANCE:DRUG'
p8555
aS'SUBSTANCE'
p8556
asS'joint'
p8557
(lp8558
S'SUBSTANCE:DRUG'
p8559
aS'SUBSTANCE'
p8560
asS'bean'
p8561
(lp8562
S'PLANT'
p8563
aS'SUBSTANCE'
p8564
aS'PRODUCT'
p8565
aS'SUBSTANCE:FOOD'
p8566
asS'Tom Landry'
p8567
(lp8568
S'PERSON'
p8569
asS'Once'
p8570
(lp8571
S'WORK_OF_ART:BOOK'
p8572
aS'WORK_OF_ART'
p8573
asS'NIH'
p8574
(lp8575
S'PERSON'
p8576
aS'ORGANIZATION:EDUCATIONAL'
p8577
aS'ORGANIZATION'
p8578
asS'Perkin-Elmer'
p8579
(lp8580
S'ORGANIZATION'
p8581
aS'ORGANIZATION:CORPORATION'
p8582
asS'committees'
p8583
(lp8584
S'ORGANIZATION'
p8585
aS'ORGANIZATION:GOVERNMENT'
p8586
asS'trucks'
p8587
(lp8588
S'PRODUCT:VEHICLE'
p8589
aS'PRODUCT'
p8590
asS'Phillips'
p8591
(lp8592
S'ORGANIZATION'
p8593
aS'ORGANIZATION:CORPORATION'
p8594
asS'New Jersey'
p8595
(lp8596
S'GPE:STATE_PROVINCE'
p8597
aS'GPE'
p8598
aS'LOCATION'
p8599
asS'Maury'
p8600
(lp8601
S'LOCATION'
p8602
asS'areas'
p8603
(lp8604
S'LOCATION'
p8605
asS'Richard Cheney'
p8606
(lp8607
S'PERSON'
p8608
asS'Experts'
p8609
(lp8610
S'PERSON'
p8611
asS'Naval Institute'
p8612
(lp8613
S'ORGANIZATION'
p8614
aS'ORGANIZATION:CORPORATION'
p8615
asS'FDA'
p8616
(lp8617
S'PERSON'
p8618
asS'Banco Ambrosiano'
p8619
(lp8620
S'ORGANIZATION'
p8621
aS'ORGANIZATION:CORPORATION'
p8622
asS'home-building'
p8623
(lp8624
S'ORGANIZATION'
p8625
aS'ORGANIZATION:CORPORATION'
p8626
asS'Levine'
p8627
(lp8628
S'PERSON'
p8629
asS'humans'
p8630
(lp8631
S'PLANT'
p8632
asS'Traders'
p8633
(lp8634
S'PERSON'
p8635
asS'Lawrence'
p8636
(lp8637
S'GPE'
p8638
aS'GPE:CITY'
p8639
asS'computer'
p8640
(lp8641
S'PERSON'
p8642
aS'ORGANIZATION'
p8643
aS'ORGANIZATION:CORPORATION'
p8644
asS'enhanced'
p8645
(lp8646
S'ORGANIZATION'
p8647
aS'ORGANIZATION:CORPORATION'
p8648
asS'Percy Sutton'
p8649
(lp8650
S'PERSON'
p8651
asS'cold'
p8652
(lp8653
S'DISEASE'
p8654
asS'The Odeon'
p8655
(lp8656
S'ORGANIZATION'
p8657
aS'ORGANIZATION:CORPORATION'
p8658
asS'wire'
p8659
(lp8660
S'SUBSTANCE'
p8661
asS'televised'
p8662
(lp8663
S'WORK_OF_ART'
p8664
asS'Hawaiian'
p8665
(lp8666
S'GPE:STATE_PROVINCE'
p8667
aS'GPE'
p8668
aS'LOCATION:REGION'
p8669
aS'LOCATION'
p8670
asS'record'
p8671
(lp8672
S'PERSON'
p8673
asS'The decision'
p8674
(lp8675
S'PERSON'
p8676
asS'DeWitt'
p8677
(lp8678
S'GPE'
p8679
aS'GPE:CITY'
p8680
asS'Harvard'
p8681
(lp8682
S'PERSON'
p8683
aS'ORGANIZATION'
p8684
aS'ORGANIZATION:EDUCATIONAL'
p8685
aS'ORGANIZATION:CORPORATION'
p8686
asS'Los Angeles'
p8687
(lp8688
S'GPE'
p8689
aS'LOCATION'
p8690
aS'GPE:CITY'
p8691
asS'Republican'
p8692
(lp8693
S'ORGANIZATION:POLITICAL'
p8694
aS'ORGANIZATION'
p8695
aS'EVENT'
p8696
asS'Monogram'
p8697
(lp8698
S'ORGANIZATION'
p8699
aS'ORGANIZATION:CORPORATION'
p8700
asS'publishers'
p8701
(lp8702
S'PERSON'
p8703
asS'Jack Kemp'
p8704
(lp8705
S'PERSON'
p8706
asS'Macmillan group'
p8707
(lp8708
S'ORGANIZATION'
p8709
aS'ORGANIZATION:CORPORATION'
p8710
aS'PERSON'
p8711
asS'Democrat'
p8712
(lp8713
S'ORGANIZATION:POLITICAL'
p8714
aS'ORGANIZATION'
p8715
asS'presidential election'
p8716
(lp8717
S'EVENT'
p8718
asS'Walt Disney Co.'
p8719
(lp8720
S'PERSON'
p8721
aS'ORGANIZATION'
p8722
aS'ORGANIZATION:CORPORATION'
p8723
asS'swift'
p8724
(lp8725
S'PLANT'
p8726
asS'IRS records'
p8727
(lp8728
S'ORGANIZATION'
p8729
aS'ORGANIZATION:CORPORATION'
p8730
asS'Dennis Conner'
p8731
(lp8732
S'PERSON'
p8733
asS'hits'
p8734
(lp8735
S'PERSON'
p8736
asS'Ethiopian'
p8737
(lp8738
S'GPE'
p8739
aS'LOCATION:REGION'
p8740
aS'LOCATION'
p8741
aS'GPE:COUNTRY'
p8742
asS'drug'
p8743
(lp8744
S'SUBSTANCE:DRUG'
p8745
aS'SUBSTANCE'
p8746
asS'grain'
p8747
(lp8748
S'SUBSTANCE'
p8749
aS'SUBSTANCE:FOOD'
p8750
asS'Delicious'
p8751
(lp8752
S'CONTACT_INFO:url'
p8753
aS'CONTACT_INFO'
p8754
asS'Eli Lilly'
p8755
(lp8756
S'ORGANIZATION'
p8757
aS'ORGANIZATION:CORPORATION'
p8758
asS'Beaver'
p8759
(lp8760
S'PLANT'
p8761
aS'ANIMAL'
p8762
asS'Tacoma'
p8763
(lp8764
S'GPE'
p8765
aS'GPE:CITY'
p8766
asS'Lancaster'
p8767
(lp8768
S'GPE'
p8769
aS'GPE:CITY'
p8770
asS'Santa Clara'
p8771
(lp8772
S'GPE:CITY'
p8773
aS'GPE'
p8774
aS'FACILITY:BUILDING'
p8775
aS'FACILITY'
p8776
asS'production units'
p8777
(lp8778
S'ORGANIZATION'
p8779
aS'ORGANIZATION:CORPORATION'
p8780
asS'Limited Partnerships'
p8781
(lp8782
S'PERSON'
p8783
asS'Luxembourg'
p8784
(lp8785
S'GPE'
p8786
aS'GPE:CITY'
p8787
asS'Lotus Development'
p8788
(lp8789
S'PERSON'
p8790
aS'ORGANIZATION'
p8791
aS'ORGANIZATION:CORPORATION'
p8792
asS'colleges'
p8793
(lp8794
S'PERSON'
p8795
asS'Los'
p8796
(lp8797
S'ORGANIZATION'
p8798
aS'ORGANIZATION:CORPORATION'
p8799
asS'businessman'
p8800
(lp8801
S'PERSON'
p8802
asS'mechanical engineering'
p8803
(lp8804
S'ORGANIZATION'
p8805
aS'ORGANIZATION:EDUCATIONAL'
p8806
asS"O'Connor"
p8807
(lp8808
S'PERSON'
p8809
asS'Spoon'
p8810
(lp8811
S'PERSON'
p8812
aS'ORGANIZATION'
p8813
asS'Kyodo news'
p8814
(lp8815
S'ORGANIZATION'
p8816
aS'ORGANIZATION:CORPORATION'
p8817
asS'Thailand'
p8818
(lp8819
S'GPE'
p8820
aS'GPE:COUNTRY'
p8821
asS'Toronto'
p8822
(lp8823
S'GPE'
p8824
aS'LOCATION'
p8825
aS'GPE:CITY'
p8826
asS'New York State'
p8827
(lp8828
S'GPE'
p8829
aS'GPE:CITY'
p8830
asS'Exxon'
p8831
(lp8832
S'ORGANIZATION'
p8833
aS'ORGANIZATION:CORPORATION'
p8834
asS'Columbia center'
p8835
(lp8836
S'FACILITY:BUILDING'
p8837
aS'FACILITY'
p8838
asS'San Francisco-based'
p8839
(lp8840
S'GPE'
p8841
aS'LOCATION'
p8842
aS'GPE:CITY'
p8843
asS'millon'
p8844
(lp8845
S'PERSON'
p8846
asS'scrutiny'
p8847
(lp8848
S'EVENT'
p8849
asS'Thursday'
p8850
(lp8851
S'PERSON'
p8852
aS'ORGANIZATION'
p8853
asS'general'
p8854
(lp8855
S'PERSON'
p8856
asS'troubled'
p8857
(lp8858
S'EVENT'
p8859
aS'EVENT:WAR'
p8860
asS'Reebok International'
p8861
(lp8862
S'ORGANIZATION'
p8863
aS'ORGANIZATION:CORPORATION'
p8864
asS'Presidents'
p8865
(lp8866
S'PERSON'
p8867
asS'General'
p8868
(lp8869
S'PERSON'
p8870
asS'marketing executive'
p8871
(lp8872
S'PERSON'
p8873
asS'Christmas season'
p8874
(lp8875
S'EVENT'
p8876
asS'The Wall Street Journal'
p8877
(lp8878
S'WORK_OF_ART:BOOK'
p8879
aS'ORGANIZATION'
p8880
aS'WORK_OF_ART'
p8881
aS'ORGANIZATION:CORPORATION'
p8882
asS'owns'
p8883
(lp8884
S'PERSON'
p8885
asS'Taiwan'
p8886
(lp8887
S'GPE'
p8888
aS'LOCATION:REGION'
p8889
aS'LOCATION'
p8890
aS'GPE:COUNTRY'
p8891
asS'barely'
p8892
(lp8893
S'GPE'
p8894
aS'GPE:CITY'
p8895
asS'Rudolph'
p8896
(lp8897
S'PERSON'
p8898
asS'Red Delicious'
p8899
(lp8900
S'PLANT'
p8901
aS'SUBSTANCE'
p8902
aS'PRODUCT'
p8903
aS'SUBSTANCE:FOOD'
p8904
asS'Goldwater'
p8905
(lp8906
S'PERSON'
p8907
asS'Briggs'
p8908
(lp8909
S'PERSON'
p8910
asS'Lowell'
p8911
(lp8912
S'GPE'
p8913
aS'GPE:CITY'
p8914
asS'Beau'
p8915
(lp8916
S'PERSON'
p8917
asS'FEMA'
p8918
(lp8919
S'ORGANIZATION'
p8920
aS'ORGANIZATION:CORPORATION'
p8921
asS'On top'
p8922
(lp8923
S'WORK_OF_ART'
p8924
aS'WORK_OF_ART:SONG'
p8925
asS'Bean'
p8926
(lp8927
S'SUBSTANCE'
p8928
aS'SUBSTANCE:FOOD'
p8929
asS'United Nations'
p8930
(lp8931
S'ORGANIZATION'
p8932
aS'ORGANIZATION:CORPORATION'
p8933
aS'PERSON'
p8934
aS'ORGANIZATION:GOVERNMENT'
p8935
asS'Suez'
p8936
(lp8937
S'ORGANIZATION'
p8938
aS'ORGANIZATION:CORPORATION'
p8939
asS'kidnapping'
p8940
(lp8941
S'PERSON'
p8942
asS'Third'
p8943
(lp8944
S'GPE'
p8945
aS'GPE:COUNTRY'
p8946
asS'promoters'
p8947
(lp8948
S'PERSON'
p8949
asS'nationally'
p8950
(lp8951
S'PERSON'
p8952
aS'ORGANIZATION'
p8953
aS'ORGANIZATION:GOVERNMENT'
p8954
asS'authors'
p8955
(lp8956
S'PERSON'
p8957
asS'cinematographer'
p8958
(lp8959
S'PERSON'
p8960
asS'Mitchell'
p8961
(lp8962
S'GPE'
p8963
aS'GPE:CITY'
p8964
asS'diabetes'
p8965
(lp8966
S'DISEASE'
p8967
asS'Houston'
p8968
(lp8969
S'GPE'
p8970
aS'GPE:CITY'
p8971
asS'Philip Morris'
p8972
(lp8973
S'ORGANIZATION'
p8974
aS'ORGANIZATION:CORPORATION'
p8975
asS'Australian government'
p8976
(lp8977
S'PERSON'
p8978
aS'ORGANIZATION'
p8979
aS'ORGANIZATION:GOVERNMENT'
p8980
asS'Finkelstein'
p8981
(lp8982
S'PERSON'
p8983
asS'Brink'
p8984
(lp8985
S'PERSON'
p8986
asS'Total'
p8987
(lp8988
S'ORGANIZATION'
p8989
aS'ORGANIZATION:CORPORATION'
p8990
asS'Eastern Airlines'
p8991
(lp8992
S'ORGANIZATION'
p8993
aS'ORGANIZATION:CORPORATION'
p8994
asS'Reagan years'
p8995
(lp8996
S'PERSON'
p8997
asS'William Seidman'
p8998
(lp8999
S'PERSON'
p9000
asS'executive'
p9001
(lp9002
S'PERSON'
p9003
aS'ORGANIZATION'
p9004
aS'ORGANIZATION:GOVERNMENT'
p9005
asS'domestic'
p9006
(lp9007
S'PERSON'
p9008
asS'BT'
p9009
(lp9010
S'ORGANIZATION'
p9011
aS'ORGANIZATION:CORPORATION'
p9012
asS'Chairman'
p9013
(lp9014
S'PERSON'
p9015
asS'Fourth'
p9016
(lp9017
S'LAW'
p9018
asS'General Electric Capital'
p9019
(lp9020
S'ORGANIZATION'
p9021
aS'ORGANIZATION:CORPORATION'
p9022
asS'San Francisco'
p9023
(lp9024
S'GPE'
p9025
aS'LOCATION'
p9026
aS'GPE:CITY'
p9027
asS'Argentina'
p9028
(lp9029
S'GPE'
p9030
aS'GPE:COUNTRY'
p9031
asS'Argentine'
p9032
(lp9033
S'GPE'
p9034
aS'GPE:COUNTRY'
p9035
asS'mortgage brokers'
p9036
(lp9037
S'PERSON'
p9038
aS'ORGANIZATION'
p9039
aS'ORGANIZATION:CORPORATION'
p9040
asS'forestry'
p9041
(lp9042
S'PLANT'
p9043
asS'Wall Street crash'
p9044
(lp9045
S'EVENT'
p9046
asS'Turkish'
p9047
(lp9048
S'GPE'
p9049
aS'GPE:COUNTRY'
p9050
asS'day'
p9051
(lp9052
S'EVENT'
p9053
asS'H.R'
p9054
(lp9055
S'PERSON'
p9056
asS'great pyramids'
p9057
(lp9058
S'FACILITY:ATTRACTION'
p9059
aS'FACILITY:BUILDING'
p9060
aS'FACILITY'
p9061
asS'crack'
p9062
(lp9063
S'SUBSTANCE:DRUG'
p9064
aS'SUBSTANCE'
p9065
aS'SUBSTANCE:CHEMICAL'
p9066
asS'The Pentagon'
p9067
(lp9068
S'FACILITY:BUILDING'
p9069
aS'ORGANIZATION:CORPORATION'
p9070
aS'FACILITY'
p9071
aS'ORGANIZATION:GOVERNMENT'
p9072
aS'PERSON'
p9073
aS'ORGANIZATION'
p9074
asS'Appert'
p9075
(lp9076
S'PERSON'
p9077
asS'Esso'
p9078
(lp9079
S'ORGANIZATION'
p9080
aS'ORGANIZATION:CORPORATION'
p9081
asS'government'
p9082
(lp9083
S'PERSON'
p9084
aS'ORGANIZATION'
p9085
aS'ORGANIZATION:GOVERNMENT'
p9086
asS'execute'
p9087
(lp9088
S'EVENT'
p9089
aS'EVENT:WAR'
p9090
asS'Drug'
p9091
(lp9092
S'SUBSTANCE:DRUG'
p9093
aS'SUBSTANCE'
p9094
asS'Fifth Circuit'
p9095
(lp9096
S'ORGANIZATION'
p9097
aS'ORGANIZATION:GOVERNMENT'
p9098
asS'Silicon Valley'
p9099
(lp9100
S'LOCATION:REGION'
p9101
aS'LOCATION'
p9102
asS'Ammann'
p9103
(lp9104
S'PERSON'
p9105
asS'Roebuck'
p9106
(lp9107
S'PLANT'
p9108
aS'ANIMAL'
p9109
asS'loss'
p9110
(lp9111
S'EVENT'
p9112
aS'EVENT:WAR'
p9113
asS'Merrill Lynch'
p9114
(lp9115
S'ORGANIZATION'
p9116
aS'ORGANIZATION:CORPORATION'
p9117
asS'security service'
p9118
(lp9119
S'ORGANIZATION'
p9120
aS'ORGANIZATION:GOVERNMENT'
p9121
asS'England'
p9122
(lp9123
S'GPE'
p9124
aS'LOCATION'
p9125
aS'GPE:COUNTRY'
p9126
asS'excluding'
p9127
(lp9128
S'LAW'
p9129
asS'chairs'
p9130
(lp9131
S'PERSON'
p9132
asS'Within'
p9133
(lp9134
S'PERSON'
p9135
aS'ORGANIZATION'
p9136
asS'sages'
p9137
(lp9138
S'PLANT'
p9139
aS'SUBSTANCE'
p9140
aS'PRODUCT'
p9141
aS'SUBSTANCE:FOOD'
p9142
asS'After Hours'
p9143
(lp9144
S'WORK_OF_ART'
p9145
asS'journalist'
p9146
(lp9147
S'PERSON'
p9148
asS'Polish'
p9149
(lp9150
S'GPE'
p9151
aS'GPE:COUNTRY'
p9152
asS'investment advisers'
p9153
(lp9154
S'PERSON'
p9155
asS'Bell Atlantic'
p9156
(lp9157
S'ORGANIZATION'
p9158
aS'ORGANIZATION:CORPORATION'
p9159
asS'Saab-Scania'
p9160
(lp9161
S'ORGANIZATION'
p9162
aS'ORGANIZATION:CORPORATION'
p9163
asS'Californians'
p9164
(lp9165
S'GPE:STATE_PROVINCE'
p9166
aS'GPE'
p9167
aS'LOCATION'
p9168
asS'securities analysts'
p9169
(lp9170
S'PERSON'
p9171
asS'ventilated'
p9172
(lp9173
S'SUBSTANCE:DRUG'
p9174
aS'SUBSTANCE'
p9175
asS'Baker Boys'
p9176
(lp9177
S'WORK_OF_ART'
p9178
asS'redress'
p9179
(lp9180
S'LAW'
p9181
asS'recommendation'
p9182
(lp9183
S'PERSON'
p9184
aS'ORGANIZATION'
p9185
aS'ORGANIZATION:CORPORATION'
p9186
asS'Jaguar'
p9187
(lp9188
S'ORGANIZATION'
p9189
aS'ORGANIZATION:CORPORATION'
p9190
asS'employment'
p9191
(lp9192
S'EVENT'
p9193
asS'public relations'
p9194
(lp9195
S'PERSON'
p9196
asS'Eugene'
p9197
(lp9198
S'GPE'
p9199
aS'GPE:CITY'
p9200
asS'Barron'
p9201
(lp9202
S'LOCATION'
p9203
aS'LOCATION:RIVER'
p9204
asS'Singapore'
p9205
(lp9206
S'GPE'
p9207
aS'LOCATION'
p9208
aS'GPE:COUNTRY'
p9209
asS'broad'
p9210
(lp9211
S'PLANT'
p9212
aS'SUBSTANCE'
p9213
aS'PRODUCT'
p9214
aS'SUBSTANCE:FOOD'
p9215
asS'Federal Home Loan Bank'
p9216
(lp9217
S'ORGANIZATION'
p9218
aS'ORGANIZATION:CORPORATION'
p9219
asS'Montana'
p9220
(lp9221
S'GPE:STATE_PROVINCE'
p9222
aS'GPE'
p9223
aS'LOCATION'
p9224
asS'bosses'
p9225
(lp9226
S'PERSON'
p9227
asS'George Miller'
p9228
(lp9229
S'PERSON'
p9230
asS'Seventy'
p9231
(lp9232
S'PERSON'
p9233
asS'hinder'
p9234
(lp9235
S'PERSON'
p9236
aS'ORGANIZATION'
p9237
asS'George Bush'
p9238
(lp9239
S'PERSON'
p9240
asS'Yuba City'
p9241
(lp9242
S'GPE'
p9243
aS'GPE:CITY'
p9244
asS'coated'
p9245
(lp9246
S'SUBSTANCE'
p9247
asS'Baker'
p9248
(lp9249
S'PERSON'
p9250
asS'senior partner'
p9251
(lp9252
S'PERSON'
p9253
asS'Up'
p9254
(lp9255
S'WORK_OF_ART'
p9256
asS'Sansui Electric'
p9257
(lp9258
S'ORGANIZATION'
p9259
aS'ORGANIZATION:CORPORATION'
p9260
asS'waits'
p9261
(lp9262
S'PERSON'
p9263
asS'Fujitsu'
p9264
(lp9265
S'PERSON'
p9266
aS'ORGANIZATION'
p9267
aS'ORGANIZATION:CORPORATION'
p9268
asS'Chuck'
p9269
(lp9270
S'WORK_OF_ART'
p9271
asS'pasta'
p9272
(lp9273
S'SUBSTANCE'
p9274
aS'SUBSTANCE:FOOD'
p9275
asS'Microsoft'
p9276
(lp9277
S'PERSON'
p9278
aS'ORGANIZATION'
p9279
aS'ORGANIZATION:CORPORATION'
p9280
asS'apple trees'
p9281
(lp9282
S'PRODUCT'
p9283
aS'SUBSTANCE'
p9284
aS'SUBSTANCE:FOOD'
p9285
asS'distilling'
p9286
(lp9287
S'PRODUCT'
p9288
asS'December'
p9289
(lp9290
S'EVENT'
p9291
asS'abstinence'
p9292
(lp9293
S'SUBSTANCE:DRUG'
p9294
aS'SUBSTANCE'
p9295
asS'Peabody'
p9296
(lp9297
S'GPE'
p9298
aS'WORK_OF_ART'
p9299
aS'GPE:CITY'
p9300
asS'Metro Bank'
p9301
(lp9302
S'ORGANIZATION'
p9303
aS'ORGANIZATION:CORPORATION'
p9304
asS'Americans'
p9305
(lp9306
S'GPE'
p9307
aS'LOCATION'
p9308
aS'GPE:COUNTRY'
p9309
asS'UK'
p9310
(lp9311
S'GPE'
p9312
aS'LOCATION'
p9313
aS'GPE:COUNTRY'
p9314
asS'federal funding'
p9315
(lp9316
S'PERSON'
p9317
aS'ORGANIZATION'
p9318
aS'ORGANIZATION:GOVERNMENT'
p9319
asS'Huntington Beach'
p9320
(lp9321
S'GPE'
p9322
aS'GPE:CITY'
p9323
asS'Mayor'
p9324
(lp9325
S'PERSON'
p9326
asS'executives'
p9327
(lp9328
S'PERSON'
p9329
asS'Beneficial'
p9330
(lp9331
S'ORGANIZATION'
p9332
aS'ORGANIZATION:CORPORATION'
p9333
asS'N.C.'
p9334
(lp9335
S'GPE:STATE_PROVINCE'
p9336
aS'GPE'
p9337
aS'LOCATION'
p9338
asS'Dean Witter Reynolds'
p9339
(lp9340
S'ORGANIZATION'
p9341
aS'ORGANIZATION:CORPORATION'
p9342
asS'Greenville'
p9343
(lp9344
S'GPE'
p9345
aS'GPE:CITY'
p9346
asS'Israeli'
p9347
(lp9348
S'GPE'
p9349
aS'GPE:CITY'
p9350
asS'Black Monday'
p9351
(lp9352
S'EVENT'
p9353
asS'Scientists'
p9354
(lp9355
S'PERSON'
p9356
asS'Honeybee'
p9357
(lp9358
S'PLANT'
p9359
aS'SUBSTANCE'
p9360
asS'Lanzhou'
p9361
(lp9362
S'GPE'
p9363
aS'LOCATION'
p9364
aS'GPE:CITY'
p9365
asS'truck drivers'
p9366
(lp9367
S'PERSON'
p9368
asS'rivals'
p9369
(lp9370
S'EVENT'
p9371
asS'high plains'
p9372
(lp9373
S'LOCATION:REGION'
p9374
aS'LOCATION'
p9375
asS'Assistant'
p9376
(lp9377
S'PERSON'
p9378
asS'South'
p9379
(lp9380
S'LOCATION:REGION'
p9381
aS'LOCATION'
p9382
asS'powdered'
p9383
(lp9384
S'SUBSTANCE'
p9385
aS'SUBSTANCE:FOOD'
p9386
asS'Bruner'
p9387
(lp9388
S'PERSON'
p9389
asS'north'
p9390
(lp9391
S'LOCATION'
p9392
asS'Ekco'
p9393
(lp9394
S'ORGANIZATION'
p9395
aS'ORGANIZATION:CORPORATION'
p9396
asS'Seahorse'
p9397
(lp9398
S'PLANT'
p9399
asS'funds'
p9400
(lp9401
S'PERSON'
p9402
asS'Southern Methodist'
p9403
(lp9404
S'ORGANIZATION'
p9405
aS'ORGANIZATION:EDUCATIONAL'
p9406
aS'ORGANIZATION:CORPORATION'
p9407
asS'South Australian'
p9408
(lp9409
S'GPE:STATE_PROVINCE'
p9410
aS'GPE'
p9411
aS'LOCATION'
p9412
asS'Carlos Menem'
p9413
(lp9414
S'PERSON'
p9415
asS'New Haven'
p9416
(lp9417
S'GPE'
p9418
aS'GPE:CITY'
p9419
asS'Following'
p9420
(lp9421
S'WORK_OF_ART'
p9422
asS'squeeze'
p9423
(lp9424
S'DISEASE'
p9425
asS'Dee'
p9426
(lp9427
S'LOCATION'
p9428
aS'LOCATION:RIVER'
p9429
asS'Times Square'
p9430
(lp9431
S'FACILITY:ATTRACTION'
p9432
aS'FACILITY'
p9433
asS'PNC'
p9434
(lp9435
S'ORGANIZATION'
p9436
aS'ORGANIZATION:CORPORATION'
p9437
asS'Gold'
p9438
(lp9439
S'SUBSTANCE:DRUG'
p9440
aS'SUBSTANCE'
p9441
aS'SUBSTANCE:CHEMICAL'
p9442
asS'Mack'
p9443
(lp9444
S'ORGANIZATION'
p9445
aS'ORGANIZATION:CORPORATION'
p9446
asS'official'
p9447
(lp9448
S'PERSON'
p9449
asS'Benton Harbor'
p9450
(lp9451
S'GPE'
p9452
aS'GPE:CITY'
p9453
asS'Britain'
p9454
(lp9455
S'GPE'
p9456
aS'LOCATION'
p9457
aS'GPE:COUNTRY'
p9458
asS'cake'
p9459
(lp9460
S'PRODUCT'
p9461
asS'group chief executive'
p9462
(lp9463
S'PERSON'
p9464
asS'crusade'
p9465
(lp9466
S'EVENT'
p9467
aS'EVENT:WAR'
p9468
asS'Steve Walsh'
p9469
(lp9470
S'PERSON'
p9471
asS'SWAPO'
p9472
(lp9473
S'ORGANIZATION:POLITICAL'
p9474
aS'ORGANIZATION'
p9475
asS'Gaubert'
p9476
(lp9477
S'PERSON'
p9478
asS'Gorky Street'
p9479
(lp9480
S'FACILITY:HIGHWAY_STREET'
p9481
aS'FACILITY'
p9482
asS'Adams'
p9483
(lp9484
S'PERSON'
p9485
asS'planting'
p9486
(lp9487
S'PLANT'
p9488
aS'SUBSTANCE'
p9489
asS'Princeton'
p9490
(lp9491
S'ORGANIZATION'
p9492
aS'ORGANIZATION:EDUCATIONAL'
p9493
aS'ORGANIZATION:CORPORATION'
p9494
asS'East Germany'
p9495
(lp9496
S'GPE'
p9497
aS'GPE:COUNTRY'
p9498
asS'Yesterday'
p9499
(lp9500
S'WORK_OF_ART'
p9501
aS'WORK_OF_ART:SONG'
p9502
asS'Fuji'
p9503
(lp9504
S'ORGANIZATION'
p9505
aS'ORGANIZATION:CORPORATION'
p9506
asS'Five'
p9507
(lp9508
S'ORGANIZATION'
p9509
aS'ORGANIZATION:CORPORATION'
p9510
aS'PERSON'
p9511
asS'granite'
p9512
(lp9513
S'SUBSTANCE'
p9514
asS'Unisys'
p9515
(lp9516
S'ORGANIZATION'
p9517
aS'ORGANIZATION:CORPORATION'
p9518
asS'Poland'
p9519
(lp9520
S'GPE'
p9521
aS'GPE:COUNTRY'
p9522
asS'Milton'
p9523
(lp9524
S'PERSON'
p9525
asS'February'
p9526
(lp9527
S'EVENT'
p9528
aS'EVENT:WAR'
p9529
asS'private security'
p9530
(lp9531
S'PERSON'
p9532
asS'Pacific Telesis Group'
p9533
(lp9534
S'ORGANIZATION'
p9535
aS'ORGANIZATION:CORPORATION'
p9536
asS'traumatic'
p9537
(lp9538
S'DISEASE'
p9539
asS'GE Capital'
p9540
(lp9541
S'ORGANIZATION'
p9542
aS'ORGANIZATION:CORPORATION'
p9543
asS'real estate developers'
p9544
(lp9545
S'PERSON'
p9546
asS'directory'
p9547
(lp9548
S'CONTACT_INFO:url'
p9549
aS'CONTACT_INFO'
p9550
asS'ecological'
p9551
(lp9552
S'CONTACT_INFO:url'
p9553
aS'CONTACT_INFO'
p9554
asS'Deere'
p9555
(lp9556
S'ORGANIZATION'
p9557
aS'ORGANIZATION:CORPORATION'
p9558
aS'PERSON'
p9559
asS'Baltimore'
p9560
(lp9561
S'GPE'
p9562
aS'LOCATION'
p9563
aS'GPE:CITY'
p9564
asS'Stewart'
p9565
(lp9566
S'PERSON'
p9567
asS'Vermont College'
p9568
(lp9569
S'ORGANIZATION'
p9570
aS'ORGANIZATION:EDUCATIONAL'
p9571
aS'ORGANIZATION:CORPORATION'
p9572
asS'Thus'
p9573
(lp9574
S'ORGANIZATION'
p9575
aS'ORGANIZATION:CORPORATION'
p9576
asS'These Boots'
p9577
(lp9578
S'WORK_OF_ART'
p9579
aS'WORK_OF_ART:SONG'
p9580
asS'Justice Department'
p9581
(lp9582
S'ORGANIZATION'
p9583
aS'ORGANIZATION:GOVERNMENT'
p9584
asS'United Illuminating'
p9585
(lp9586
S'ORGANIZATION'
p9587
aS'ORGANIZATION:CORPORATION'
p9588
asS'Oliver North'
p9589
(lp9590
S'PERSON'
p9591
asS'eclipsing'
p9592
(lp9593
S'EVENT'
p9594
as.