ccollections
defaultdict
p1
(c__builtin__
list
p2
tRp3
S'SUBSTANCE'
p4
(lp5
S'operations'
p6
aS'Mercury'
p7
aS'cereal'
p8
aS'chemical fertilizers'
p9
aS'ale'
p10
aS'Sugar'
p11
aS'Glauber'
p12
aS'booze'
p13
aS'woods'
p14
aS'Coconuts'
p15
aS'lasers'
p16
aS'speed'
p17
aS'milk'
p18
aS'ground'
p19
aS'blow'
p20
aS'gilded'
p21
aS'revived'
p22
aS'apple pie'
p23
aS'stainless steel'
p24
aS'sparkling'
p25
aS'sugar'
p26
aS'late'
p27
aS'cherries'
p28
aS'raising'
p29
aS'removable'
p30
aS'crack'
p31
aS'activities'
p32
aS'polyurethane'
p33
aS'Aloe'
p34
aS'asbestos'
p35
aS'plaster'
p36
aS'material'
p37
aS'Drug'
p38
aS'joint'
p39
aS'bean'
p40
aS'silver'
p41
aS'bread'
p42
aS'Copper'
p43
aS'recreation'
p44
aS'soybean oil'
p45
aS'oxygen'
p46
aS'candy'
p47
aS'keyed'
p48
aS'solid'
p49
aS'burgers'
p50
aS'activity'
p51
aS'Biscuit'
p52
aS'tanker'
p53
aS'biscuits'
p54
aS'Ca'
p55
aS'Platinum'
p56
aS'wrack'
p57
aS'Beef'
p58
aS'carbon dioxide'
p59
aS'ventilated'
p60
aS'born'
p61
aS'fruit'
p62
aS'dried'
p63
aS'total'
p64
aS'Wheat'
p65
aS'spirits'
p66
aS'aerobic'
p67
aS'broad'
p68
aS'ice'
p69
aS'prop'
p70
aS'bracing'
p71
aS'sages'
p72
aS'diamonds'
p73
aS'Mo'
p74
aS'reviving'
p75
aS'He'
p76
aS'Crude oil'
p77
aS'coated'
p78
aS'mature'
p79
aS'fertilization'
p80
aS'Granny Smith'
p81
aS'corn'
p82
aS'Guarana'
p83
aS'slated'
p84
aS'drinking water'
p85
aS'operating'
p86
aS'sweetened'
p87
aS'pasta'
p88
aS'AN'
p89
aS'Egg'
p90
aS'bleed'
p91
aS'extreme'
p92
aS'apple trees'
p93
aS'prolonged labor'
p94
aS'stone'
p95
aS'doughnut shop'
p96
aS'abstinence'
p97
aS'ficus trees'
p98
aS'drug'
p99
aS'Freeze'
p100
aS'Paper'
p101
aS'grain'
p102
aS'insulin'
p103
aS'copper'
p104
aS'plastics'
p105
aS'apple'
p106
aS'bricks'
p107
aS'sweet'
p108
aS'cotton candy'
p109
aS'Petroleum'
p110
aS'insulins'
p111
aS'soybean'
p112
aS'drifted'
p113
aS'gallium arsenide'
p114
aS'Honeybee'
p115
aS'platinum'
p116
aS'Diamond'
p117
aS'Drugs'
p118
aS'transfer'
p119
aS'support'
p120
aS'petroleum'
p121
aS'revive'
p122
aS'plastic'
p123
aS'wood'
p124
aS'Curry'
p125
aS'oils'
p126
aS'powdered'
p127
aS'Donuts'
p128
aS'Laser'
p129
aS'drugs'
p130
aS'Medicines'
p131
aS'chocolate'
p132
aS'glass'
p133
aS'formaldehyde'
p134
aS'lemons'
p135
aS'fruit juices'
p136
aS'aluminum'
p137
aS'supplemental'
p138
aS'steel'
p139
aS'Co'
p140
aS'Gold'
p141
aS'frozen'
p142
aS'sweeten'
p143
aS'tree'
p144
aS'apples'
p145
aS'iron'
p146
aS'grass'
p147
aS'soft drink'
p148
aS'marble'
p149
aS'champagne bottles'
p150
aS'apple tree'
p151
aS'candies'
p152
aS'soil'
p153
aS'ginger'
p154
aS'Red Delicious'
p155
aS'high'
p156
aS'strain'
p157
aS'oil production'
p158
aS'Crude'
p159
aS'gaseous'
p160
aS'soft drinks'
p161
aS'clothing'
p162
aS'planting'
p163
aS'Oil'
p164
aS'coal'
p165
aS'nuts'
p166
aS'freezes'
p167
aS'Bean'
p168
aS'granite'
p169
aS'Silver'
p170
aS'At'
p171
aS'plant'
p172
aS'oil'
p173
aS'eggs'
p174
aS'Oil production'
p175
aS'salmon'
p176
aS'peas'
p177
aS'cement'
p178
aS'IV'
p179
aS'lens'
p180
aS'wire'
p181
aS'Grain'
p182
aS'trees'
p183
aS'mealy'
p184
aS'infused'
p185
aS'brass'
p186
aS'sugar mills'
p187
aS'egg'
p188
aS'medical'
p189
aS'meat'
p190
aS'traditional'
p191
aS'concrete'
p192
aS'As'
p193
aS'beverage'
p194
aS'artificially'
p195
aS'Soybean'
p196
aS'In'
p197
aS'fresh'
p198
aS'operate'
p199
aS'salt'
p200
asS'ORGANIZATION:EDUCATIONAL'
p201
(lp202
S'economists'
p203
aS'cited'
p204
aS'assumptions'
p205
aS'Washington State University'
p206
aS'Harvard University'
p207
aS'Dartmouth'
p208
aS'Ohio State University'
p209
aS'MIT'
p210
aS'Stamford school'
p211
aS'Brown'
p212
aS'mechanical engineering'
p213
aS'Princeton'
p214
aS'Economics'
p215
aS'Hiram'
p216
aS'Harvard'
p217
aS'Ohio State'
p218
aS'economic theory'
p219
aS'Columbia University'
p220
aS'Southern Methodist'
p221
aS'Tokyo'
p222
aS'Cornell University'
p223
aS'NIH'
p224
aS'Hargrave'
p225
aS'Graduate School'
p226
aS'Yale'
p227
aS'Withrow High School'
p228
aS'Vermont College'
p229
aS'great'
p230
aS'Economists'
p231
aS'Boston University'
p232
aS'Marist College'
p233
aS'Dartmouth College'
p234
aS'political economy'
p235
aS'McCaskey'
p236
asS'SUBSTANCE:DRUG'
p237
(lp238
S'operations'
p239
aS'copper'
p240
aS'insulin'
p241
aS'carbon dioxide'
p242
aS'Petroleum'
p243
aS'insulins'
p244
aS'high'
p245
aS'strain'
p246
aS'lasers'
p247
aS'oil production'
p248
aS'Crude'
p249
aS'Silver'
p250
aS'speed'
p251
aS'Ca'
p252
aS'blow'
p253
aS'gilded'
p254
aS'revived'
p255
aS'Oil'
p256
aS'Drugs'
p257
aS'transfer'
p258
aS'support'
p259
aS'petroleum'
p260
aS'revive'
p261
aS'freezes'
p262
aS'late'
p263
aS'removable'
p264
aS'crack'
p265
aS'prolonged labor'
p266
aS'Medicines'
p267
aS'reviving'
p268
aS'He'
p269
aS'Crude oil'
p270
aS'activities'
p271
aS'oil'
p272
aS'Laser'
p273
aS'Aloe'
p274
aS'drugs'
p275
aS'Mo'
p276
aS'Oil production'
p277
aS'Drug'
p278
aS'IV'
p279
aS'lens'
p280
aS'joint'
p281
aS'operating'
p282
aS'ventilated'
p283
aS'silver'
p284
aS'supplemental'
p285
aS'Copper'
p286
aS'recreation'
p287
aS'operate'
p288
aS'aluminum'
p289
aS'Gold'
p290
aS'born'
p291
aS'medical'
p292
aS'drug'
p293
aS'Freeze'
p294
aS'traditional'
p295
aS'artificially'
p296
aS'iron'
p297
aS'activity'
p298
aS'formaldehyde'
p299
aS'grass'
p300
aS'abstinence'
p301
asS'PRODUCT:WEAPON'
p302
(lp303
S'Grads'
p304
aS'shells'
p305
aS'gunpoint'
p306
aS'gun'
p307
aS'knife'
p308
aS'ranging'
p309
aS'Knife'
p310
asS'GPE:COUNTRY'
p311
(lp312
S'Canada'
p313
aS'Union'
p314
aS'Ethiopia'
p315
aS'Argentina'
p316
aS'Argentine'
p317
aS'Belgian'
p318
aS'We'
p319
aS'Byzantine'
p320
aS'Soviet'
p321
aS'French'
p322
aS'Armenian'
p323
aS'China'
p324
aS'Netherlands'
p325
aS'Finnish'
p326
aS'Canadian'
p327
aS'Suisse'
p328
aS'nation'
p329
aS'Can'
p330
aS'Vatican'
p331
aS'New Zealand'
p332
aS'continued'
p333
aS'Taipei'
p334
aS'Italian'
p335
aS'England'
p336
aS'West German'
p337
aS'Namibian'
p338
aS'Polish'
p339
aS'South Korea'
p340
aS'Turkey'
p341
aS'Ireland'
p342
aS'Turks'
p343
aS'Somalis'
p344
aS'France'
p345
aS'Somalia'
p346
aS'Peru'
p347
aS'New'
p348
aS'Danish'
p349
aS'Singapore'
p350
aS'literally'
p351
aS'Eritrean'
p352
aS'Palestinian politics'
p353
aS'America'
p354
aS'U.S.'
p355
aS'Soviet-backed'
p356
aS'nationwide'
p357
aS'chefs'
p358
aS'Indonesia'
p359
aS'Saudi Arabia'
p360
aS'The British'
p361
aS'Sweden'
p362
aS'English'
p363
aS'Bulgaria'
p364
aS'Chinese'
p365
aS'South Africa'
p366
aS'Ethiopian'
p367
aS'Malaysia'
p368
aS'Americans'
p369
aS'UK'
p370
aS'Japan'
p371
aS'Brazil'
p372
aS'Swedish'
p373
aS'U.K.'
p374
aS'Turkish'
p375
aS'Panama'
p376
aS'There'
p377
aS'pop'
p378
aS'West Germany'
p379
aS'Brazilian'
p380
aS'Australia'
p381
aS'British Parliament'
p382
aS'Belgique'
p383
aS'Belgium'
p384
aS'Thailand'
p385
aS'Iraq'
p386
aS'Hong Kong'
p387
aS'Denmark'
p388
aS'Philippines'
p389
aS'Far East'
p390
aS'Eritreans'
p391
aS'Russian'
p392
aS'American'
p393
aS'Namibia'
p394
aS'Switzerland'
p395
aS'Lebanon'
p396
aS'Britain'
p397
aS'The United Kingdom'
p398
aS'Taiwan'
p399
aS'Nicaragua'
p400
aS'Libyans'
p401
aS'Italy'
p402
aS'USA'
p403
aS'Sudan'
p404
aS'Dutch'
p405
aS'Somali'
p406
aS'Australian'
p407
aS'Iceland'
p408
aS'Spartan'
p409
aS'East Germany'
p410
aS'Papua New Guinea'
p411
aS'republic'
p412
aS'North American'
p413
aS'U.K'
p414
aS'Poland'
p415
aS'Eritrea'
p416
aS'Third'
p417
aS'Ottoman Empire'
p418
aS'British'
p419
aS'Some people'
p420
aS'British colony'
p421
aS'Swiss'
p422
aS'Syria'
p423
aS'Soviet Union'
p424
aS'All'
p425
aS'Mexico'
p426
aS'Am'
p427
aS'Japanese'
p428
aS'United Kingdom'
p429
aS'Soviets'
p430
asS'GAME'
p431
(lp432
S'items'
p433
aS'After'
p434
aS'result'
p435
aS'edgy'
p436
asS'GPE:CITY'
p437
(lp438
S'Edison'
p439
aS'DeWitt'
p440
aS'Hills'
p441
aS'Norwalk'
p442
aS'Paris'
p443
aS'Bixby'
p444
aS'Carballo'
p445
aS'San Francisco'
p446
aS'Louisiana'
p447
aS'Ky'
p448
aS'Redmond'
p449
aS'Mogadishu'
p450
aS'Hartford'
p451
aS'Brookline'
p452
aS'Westborough'
p453
aS'York'
p454
aS'Berkeley'
p455
aS'Israelis'
p456
aS'Atlanta'
p457
aS'Brussels'
p458
aS'Spain'
p459
aS'Benton Harbor'
p460
aS'Both'
p461
aS'prosper'
p462
aS'British Columbia'
p463
aS'Wilcox'
p464
aS'D.C.'
p465
aS'Menlo Park'
p466
aS'Miami'
p467
aS'Of'
p468
aS'Pine Bluff'
p469
aS'Corona'
p470
aS'Greenville'
p471
aS'Canton'
p472
aS'Jefferson City'
p473
aS'Holliston'
p474
aS'Pisa'
p475
aS'Vatican'
p476
aS'Rowe'
p477
aS'Lesko'
p478
aS'continued'
p479
aS'Waltham'
p480
aS'Gloucester'
p481
aS'Cubans'
p482
aS'Charlotte'
p483
aS'Cincinnati'
p484
aS'Moore'
p485
aS'Groton'
p486
aS'Washington'
p487
aS'Fort Worth'
p488
aS'Minneapolis'
p489
aS'Seville'
p490
aS'Milan'
p491
aS'London'
p492
aS'Cananea'
p493
aS'Gary'
p494
aS'Dalton'
p495
aS'Stanley'
p496
aS'Seattle'
p497
aS'Pawtucket'
p498
aS'Warren'
p499
aS'Burnham'
p500
aS'Rochester'
p501
aS'Milpitas'
p502
aS'District'
p503
aS'India'
p504
aS'Knoxville'
p505
aS'Budapest'
p506
aS'Denver'
p507
aS'Burlington'
p508
aS'Mossman'
p509
aS'Newcomb'
p510
aS'East'
p511
aS'Clintonville'
p512
aS'Hayward'
p513
aS'Seoul'
p514
aS'Bay Area'
p515
aS'Pittsburgh'
p516
aS'New York City'
p517
aS'Moscow'
p518
aS'San Diego'
p519
aS'RICHMOND'
p520
aS'New York'
p521
aS'Los Angeles'
p522
aS'Manchester'
p523
aS'Germany'
p524
aS'LaSalle'
p525
aS'Colorado Springs'
p526
aS'Rockford'
p527
aS'Cuban'
p528
aS'Florida'
p529
aS'Asmara'
p530
aS'WASHINGTON'
p531
aS'Watertown'
p532
aS'high point'
p533
aS'N.Y.'
p534
aS'city hall'
p535
aS'Longmont'
p536
aS'Stanton'
p537
aS'Buffalo'
p538
aS'Boston'
p539
aS'barely'
p540
aS'Peabody'
p541
aS'Sacramento'
p542
aS'Huntington Beach'
p543
aS'Tacoma'
p544
aS'Belz'
p545
aS'El Monte'
p546
aS'Santa Clara'
p547
aS'Dallas'
p548
aS'Oklahoma'
p549
aS'IN'
p550
aS'Denton'
p551
aS'Luxembourg'
p552
aS'Fairfield'
p553
aS'Richmond'
p554
aS'Louisville'
p555
aS'Pasadena'
p556
aS'Santa Ana'
p557
aS'Riverside'
p558
aS'Capel'
p559
aS'Lanzhou'
p560
aS'Indianapolis'
p561
aS'Danbury'
p562
aS'Lawrence'
p563
aS'Ann Arbor'
p564
aS'Santa Cruz'
p565
aS'Asheville'
p566
aS'Berbera'
p567
aS'Moss'
p568
aS'Hong Kong'
p569
aS'Assab'
p570
aS'Toronto'
p571
aS'Lake Charles'
p572
aS'New York State'
p573
aS'Tokyo'
p574
aS'Braidwood'
p575
aS'San Francisco-based'
p576
aS'Shaker Heights'
p577
aS'Littleton'
p578
aS'Little Rock'
p579
aS'Detroit'
p580
aS'Philadelphia'
p581
aS'Anaheim'
p582
aS'Johnston'
p583
aS'Aden'
p584
aS'Davenport'
p585
aS'Braintree'
p586
aS'Montreal'
p587
aS'Hastings'
p588
aS'Concord'
p589
aS'German'
p590
aS'Most'
p591
aS'Atlantans'
p592
aS'New Orleans'
p593
aS'Cleveland'
p594
aS'Burton'
p595
aS'Oklahoma City'
p596
aS'Beverly Hills'
p597
aS'Columbia'
p598
aS'Lancaster'
p599
aS'City'
p600
aS'Israeli'
p601
aS'Los Gatos'
p602
aS'Chicago'
p603
aS'Lufkin'
p604
aS'Shanghai'
p605
aS'Athens'
p606
aS'Addis Ababa'
p607
aS'London-based'
p608
aS'Bainbridge Island'
p609
aS'Hammerton'
p610
aS'Monterey Park'
p611
aS'Norton'
p612
aS'ACCO'
p613
aS'Lowell'
p614
aS'Israel'
p615
aS'Chicago-based'
p616
aS'Spartan'
p617
aS'Irving'
p618
aS'Seymour'
p619
aS'Irvine'
p620
aS'Lublin'
p621
aS'Many'
p622
aS'Eugene'
p623
aS'Decatur'
p624
aS'nice'
p625
aS'Bakersfield'
p626
aS'Vermont'
p627
aS'Omaha'
p628
aS'Greece'
p629
aS'Yuba City'
p630
aS'Frederick'
p631
aS'Kansas City'
p632
aS'Los Angeles County'
p633
aS'Raleigh'
p634
aS'Palo Alto'
p635
aS'Menomonee Falls'
p636
aS'Mitchell'
p637
aS'Baltimore'
p638
aS'Houston'
p639
aS'New Haven'
p640
aS'Randolph'
p641
aS'Nashua'
p642
aS'Cuba'
p643
aS'Rome'
p644
aS'Stamford'
p645
aS'Lisbon'
p646
aS'Milwaukee'
p647
aS'Portland'
p648
aS'Oakland'
p649
aS'Robinson'
p650
aS'Warsaw'
p651
asS'SUBSTANCE:FOOD'
p652
(lp653
S'champagne bottles'
p654
aS'apple tree'
p655
aS'wrack'
p656
aS'cereal'
p657
aS'Beef'
p658
aS'candies'
p659
aS'Donuts'
p660
aS'cotton candy'
p661
aS'ale'
p662
aS'ginger'
p663
aS'Sugar'
p664
aS'Coconuts'
p665
aS'sages'
p666
aS'soybean'
p667
aS'fruit juices'
p668
aS'soft drinks'
p669
aS'milk'
p670
aS'apple'
p671
aS'biscuits'
p672
aS'Wheat'
p673
aS'apple pie'
p674
aS'Curry'
p675
aS'nuts'
p676
aS'sparkling'
p677
aS'sugar'
p678
aS'Bean'
p679
aS'cherries'
p680
aS'supplemental'
p681
aS'oils'
p682
aS'powdered'
p683
aS'extreme'
p684
aS'sweet'
p685
aS'eggs'
p686
aS'oil'
p687
aS'mature'
p688
aS'Granny Smith'
p689
aS'corn'
p690
aS'sweetened'
p691
aS'salmon'
p692
aS'peas'
p693
aS'Guarana'
p694
aS'chocolate'
p695
aS'drinking water'
p696
aS'bean'
p697
aS'fruit'
p698
aS'Grain'
p699
aS'ficus trees'
p700
aS'lemons'
p701
aS'mealy'
p702
aS'pasta'
p703
aS'infused'
p704
aS'Red Delicious'
p705
aS'Egg'
p706
aS'raising'
p707
aS'bread'
p708
aS'apple trees'
p709
aS'sugar mills'
p710
aS'soybean oil'
p711
aS'doughnut shop'
p712
aS'frozen'
p713
aS'soft drink'
p714
aS'sweeten'
p715
aS'tree'
p716
aS'salt'
p717
aS'candy'
p718
aS'meat'
p719
aS'burgers'
p720
aS'beverage'
p721
aS'grain'
p722
aS'apples'
p723
aS'Soybean'
p724
aS'broad'
p725
aS'Biscuit'
p726
aS'fresh'
p727
aS'tanker'
p728
aS'egg'
p729
asS'GPE:STATE_PROVINCE'
p730
(lp731
S'Wan'
p732
aS'Mississippi'
p733
aS'Iowa'
p734
aS'Calif.'
p735
aS'Delaware'
p736
aS'Minnesota'
p737
aS'Californians'
p738
aS'Arkansas'
p739
aS'Washington State'
p740
aS'Indiana'
p741
aS'Maryland'
p742
aS'Calif'
p743
aS'Texas'
p744
aS'We'
p745
aS'Arizona'
p746
aS'Wisconsin'
p747
aS'N.H.'
p748
aS'Colo'
p749
aS'Michigan'
p750
aS'Oregon'
p751
aS'Montana'
p752
aS'New Hampshire'
p753
aS'Massachusetts'
p754
aS'West Virginia'
p755
aS'South Carolina'
p756
aS'California'
p757
aS'Md'
p758
aS'Georgia'
p759
aS'Conn.'
p760
aS'N.C.'
p761
aS'Alaskan'
p762
aS'South Australian'
p763
aS'N.J.'
p764
aS'Nebraska'
p765
aS'Missouri'
p766
aS'Ohio'
p767
aS'Hawaiian'
p768
aS'Tenn.'
p769
aS'Co'
p770
aS'Colorado'
p771
aS'Idaho'
p772
aS'New Jersey'
p773
aS'Washington'
p774
aS'North Carolina'
p775
aS'Wash'
p776
aS'Tennessee'
p777
aS'Ore.'
p778
aS'S.C.'
p779
aS'Guangdong'
p780
aS'Miss'
p781
asS'FACILITY:HIGHWAY_STREET'
p782
(lp783
S'Nationale'
p784
aS'Market Street'
p785
aS'The main'
p786
aS'Interstate 30'
p787
aS'Seventh Avenue'
p788
aS'Interstate 880'
p789
aS'Gorky Street'
p790
asS'LANGUAGE'
p791
(lp792
S'Even'
p793
aS'perfect'
p794
aS'initial'
p795
aS'Chinese'
p796
aS'No'
p797
aS'originally'
p798
aS'de'
p799
aS'F.'
p800
aS'It'
p801
aS'Russian-language'
p802
aS'Japanese'
p803
aS'Translated'
p804
aS'S.'
p805
aS'Russian'
p806
aS'Nor'
p807
aS'Yiddish'
p808
asS'CONTACT_INFO'
p809
(lp810
S'criticism'
p811
aS'About'
p812
aS'posting'
p813
aS'business directories'
p814
aS'It'
p815
aS'crush'
p816
aS'ecological'
p817
aS'future'
p818
aS'place'
p819
aS'The project'
p820
aS'Delicious'
p821
aS'In'
p822
aS'directory'
p823
aS'assumption'
p824
aS'post'
p825
aS'Where'
p826
aS'environmentally'
p827
asS'SUBSTANCE:CHEMICAL'
p828
(lp829
S'Mercury'
p830
aS'copper'
p831
aS'Oil production'
p832
aS'carbon dioxide'
p833
aS'Petroleum'
p834
aS'Glauber'
p835
aS'booze'
p836
aS'oil production'
p837
aS'Crude'
p838
aS'gallium arsenide'
p839
aS'total'
p840
aS'speed'
p841
aS'platinum'
p842
aS'gilded'
p843
aS'Oil'
p844
aS'spirits'
p845
aS'aerobic'
p846
aS'petroleum'
p847
aS'prop'
p848
aS'crack'
p849
aS'Silver'
p850
aS'He'
p851
aS'Crude oil'
p852
aS'blow'
p853
aS'oil'
p854
aS'polyurethane'
p855
aS'Mo'
p856
aS'material'
p857
aS'aluminum'
p858
aS'AN'
p859
aS'formaldehyde'
p860
aS'Platinum'
p861
aS'silver'
p862
aS'Copper'
p863
aS'Co'
p864
aS'Gold'
p865
aS'oxygen'
p866
aS'Ca'
p867
aS'As'
p868
aS'At'
p869
aS'iron'
p870
aS'In'
p871
asS'LOCATION:REGION'
p872
(lp873
S'Brazil'
p874
aS'Northeast'
p875
aS'Italy'
p876
aS'Gulf'
p877
aS'Italian'
p878
aS'Asia'
p879
aS'Middle East'
p880
aS'Latin American'
p881
aS'Brazilian'
p882
aS'East Coast'
p883
aS'Midwest'
p884
aS'European'
p885
aS'Europe'
p886
aS'northern'
p887
aS'high plains'
p888
aS'New England'
p889
aS'Southern'
p890
aS'Taipei'
p891
aS'east'
p892
aS'Hong Kong'
p893
aS'Bay area'
p894
aS'Indonesia'
p895
aS'black Africa'
p896
aS'nation'
p897
aS'Silicon Valley'
p898
aS'South'
p899
aS'Latin America'
p900
aS'America'
p901
aS'central'
p902
aS'Hawaiian'
p903
aS'Ethiopian'
p904
aS'southeastern'
p905
aS'Middle'
p906
aS'Asian'
p907
aS'Mideast'
p908
aS'Taiwan'
p909
aS'West Coast'
p910
aS'south'
p911
aS'Europeans'
p912
asS'WORK_OF_ART:SONG'
p913
(lp914
S'unexpected'
p915
aS'blips'
p916
aS'Please'
p917
aS'Actually'
p918
aS'500 miles'
p919
aS'Plans'
p920
aS'depending'
p921
aS'BOTH SIDES NOW'
p922
aS'Yesterday'
p923
aS'On top'
p924
aS'faithfully'
p925
aS'Surrender'
p926
aS'One week'
p927
aS'According'
p928
aS'unwanted'
p929
aS'imagine'
p930
aS'Money'
p931
aS'These Boots'
p932
aS'Whatever'
p933
aS'One'
p934
aS'These days'
p935
aS'Foiled'
p936
aS'notorious'
p937
aS'Banco'
p938
aS'glory days'
p939
aS'If'
p940
asS'FACILITY:BRIDGE'
p941
(lp942
S'victims'
p943
asS'PLANT'
p944
(lp945
S'planting'
p946
aS'pork'
p947
aS'Neanderthal'
p948
aS'soybean'
p949
aS'serpent'
p950
aS'people'
p951
aS'chickens'
p952
aS'catbird'
p953
aS'chicken feed'
p954
aS'humans'
p955
aS'ginger'
p956
aS'ducks'
p957
aS'Coconuts'
p958
aS'sages'
p959
aS'human'
p960
aS'cattle'
p961
aS'Honeybee'
p962
aS'bacteria'
p963
aS'Pan'
p964
aS'hog'
p965
aS'horse'
p966
aS'Wheat'
p967
aS'inchworm'
p968
aS'cockroaches'
p969
aS'rose'
p970
aS'trees'
p971
aS'Perch'
p972
aS'Trees'
p973
aS'forestry'
p974
aS'Giraffe'
p975
aS'forest'
p976
aS'rodents'
p977
aS'Crane'
p978
aS'dogs'
p979
aS'Jute'
p980
aS'tree'
p981
aS'plant'
p982
aS'Kids'
p983
aS'animal'
p984
aS'Aloe'
p985
aS'Seahorse'
p986
aS'broad'
p987
aS'corn'
p988
aS'ficus trees'
p989
aS'Chickens'
p990
aS'peas'
p991
aS'Guarana'
p992
aS'Bee'
p993
aS'bean'
p994
aS'foxes'
p995
aS'lemons'
p996
aS'herds'
p997
aS'salmonella'
p998
aS'Red Delicious'
p999
aS'swift'
p1000
aS'sealing'
p1001
aS'bleak'
p1002
aS'man'
p1003
aS'Roebuck'
p1004
aS'buck'
p1005
aS'English oaks'
p1006
aS'soybean oil'
p1007
aS'assume'
p1008
aS'Some'
p1009
aS'dog'
p1010
aS'forest products'
p1011
aS'Bullock'
p1012
aS'neat'
p1013
aS'Soybean'
p1014
aS'assumed'
p1015
aS'Beaver'
p1016
aS'wolves'
p1017
aS'caribou'
p1018
aS'steer'
p1019
aS'lows'
p1020
asS'LOCATION'
p1021
(lp1022
S'Mississippi'
p1023
aS'Northeast'
p1024
aS'Paris'
p1025
aS'global'
p1026
aS'Minnesota'
p1027
aS'Moon'
p1028
aS'earth'
p1029
aS'Middle East'
p1030
aS'Kent'
p1031
aS'San Francisco'
p1032
aS'continent'
p1033
aS'Texas'
p1034
aS'European'
p1035
aS'We'
p1036
aS'Stanton'
p1037
aS'nice'
p1038
aS'northern'
p1039
aS'Harris'
p1040
aS'Westborough'
p1041
aS'Taipei'
p1042
aS'West Virginia'
p1043
aS'Lublin'
p1044
aS'east'
p1045
aS'Boone County'
p1046
aS'Netherlands'
p1047
aS'Hammerton'
p1048
aS'municipal'
p1049
aS'Finnish'
p1050
aS'Matagorda County'
p1051
aS'nation'
p1052
aS'Rome'
p1053
aS'Imo'
p1054
aS'Silicon Valley'
p1055
aS'Missouri'
p1056
aS'Webster'
p1057
aS'New Zealand'
p1058
aS'continued'
p1059
aS'Waltham'
p1060
aS'Denmark'
p1061
aS'areas'
p1062
aS'Capel'
p1063
aS'England'
p1064
aS'New Jersey'
p1065
aS'Maury'
p1066
aS'West German'
p1067
aS'Washington'
p1068
aS'Seville'
p1069
aS'London'
p1070
aS'Saskatchewan'
p1071
aS'South Korea'
p1072
aS'Seattle'
p1073
aS'Europeans'
p1074
aS'Latin American'
p1075
aS'Tokyo'
p1076
aS'Californians'
p1077
aS'Bethesda'
p1078
aS'District'
p1079
aS'India'
p1080
aS'Budapest'
p1081
aS'Denver'
p1082
aS'Colo'
p1083
aS'Hawaiian'
p1084
aS'British colony'
p1085
aS'Indiana'
p1086
aS'New'
p1087
aS'Maryland'
p1088
aS'Danish'
p1089
aS'Arizona'
p1090
aS'Wisconsin'
p1091
aS'Seoul'
p1092
aS'Barron'
p1093
aS'Bay Area'
p1094
aS'literally'
p1095
aS'Michigan'
p1096
aS'Oregon'
p1097
aS'RICHMOND'
p1098
aS'New York'
p1099
aS'Massachusetts'
p1100
aS'Los Angeles'
p1101
aS'Cook'
p1102
aS'Palestinian politics'
p1103
aS'America'
p1104
aS'Lanzhou'
p1105
aS'Md'
p1106
aS'Indonesia'
p1107
aS'Santa Clara County'
p1108
aS'nationwide'
p1109
aS'U.S.'
p1110
aS'The United Kingdom'
p1111
aS'WASHINGTON'
p1112
aS'The British'
p1113
aS'North America'
p1114
aS'S.C.'
p1115
aS'Indianapolis'
p1116
aS'N.Y.'
p1117
aS'English'
p1118
aS'Bronx'
p1119
aS'Ohio'
p1120
aS'Latin America'
p1121
aS'South American'
p1122
aS'Greene'
p1123
aS'central'
p1124
aS'Clark'
p1125
aS'Miss'
p1126
aS'Rodman'
p1127
aS'Ethiopian'
p1128
aS'North Carolina'
p1129
aS'East Coast'
p1130
aS'Americans'
p1131
aS'UK'
p1132
aS'Japan'
p1133
aS'Guangdong'
p1134
aS'West Coast'
p1135
aS'south'
p1136
aS'Brazil'
p1137
aS'Wan'
p1138
aS'U.K.'
p1139
aS'James River'
p1140
aS'Panama'
p1141
aS'Delaware'
p1142
aS'Asia'
p1143
aS'Canton'
p1144
aS'Richmond'
p1145
aS'Louisville'
p1146
aS'Earth'
p1147
aS'Arkansas'
p1148
aS'West Germany'
p1149
aS'Brazilian'
p1150
aS'Alberta'
p1151
aS'Washington State'
p1152
aS'Midwest'
p1153
aS'Davidson'
p1154
aS'Europe'
p1155
aS'Calif.'
p1156
aS'Australia'
p1157
aS'Gulf'
p1158
aS'high plains'
p1159
aS'New England'
p1160
aS'Southern'
p1161
aS'Brooklyn'
p1162
aS'California'
p1163
aS'Baltimore'
p1164
aS'N.J.'
p1165
aS'Hong Kong'
p1166
aS'York'
p1167
aS'Toronto'
p1168
aS'Georgia'
p1169
aS'north'
p1170
aS'Conn.'
p1171
aS'N.C.'
p1172
aS'San Francisco-based'
p1173
aS'Gloucester'
p1174
aS'South Australian'
p1175
aS'Philadelphia'
p1176
aS'Russian'
p1177
aS'American'
p1178
aS'Ireland'
p1179
aS'Small'
p1180
aS'Aden'
p1181
aS'Dee'
p1182
aS'Hastings'
p1183
aS'Brussels'
p1184
aS'Co'
p1185
aS'Colorado'
p1186
aS'Tenn.'
p1187
aS'Africa'
p1188
aS'Murray'
p1189
aS'County'
p1190
aS'Wash'
p1191
aS'Britain'
p1192
aS'New Orleans'
p1193
aS'Grady'
p1194
aS'Mideast'
p1195
aS'Cleveland'
p1196
aS'Burton'
p1197
aS'Taiwan'
p1198
aS'Santa Cruz County'
p1199
aS'Nicaragua'
p1200
aS'Trinidad'
p1201
aS'City'
p1202
aS'Ore.'
p1203
aS'Italy'
p1204
aS'USA'
p1205
aS'Chicago'
p1206
aS'Shanghai'
p1207
aS'Athens'
p1208
aS'Sol'
p1209
aS'Addis Ababa'
p1210
aS'London-based'
p1211
aS'Dutch'
p1212
aS'Thompson'
p1213
aS'Australian'
p1214
aS'Calif'
p1215
aS'Manhattan'
p1216
aS'Idaho'
p1217
aS'D.C.'
p1218
aS'Italian'
p1219
aS'Chicago-based'
p1220
aS'Tigrean'
p1221
aS'Spartan'
p1222
aS'Bay area'
p1223
aS'Papua New Guinea'
p1224
aS'New Hampshire'
p1225
aS'North American'
p1226
aS'South Carolina'
p1227
aS'Shelby County'
p1228
aS'U.K'
p1229
aS'Asian'
p1230
aS'Lower'
p1231
aS'Alaskan'
p1232
aS'black Africa'
p1233
aS'British'
p1234
aS'Los Angeles County'
p1235
aS'Nebraska'
p1236
aS'North Western'
p1237
aS'IN'
p1238
aS'Iowa'
p1239
aS'South'
p1240
aS'planet'
p1241
aS'N.H.'
p1242
aS'Mexico'
p1243
aS'Southland'
p1244
aS'Singapore'
p1245
aS'Am'
p1246
aS'Japanese'
p1247
aS'southeastern'
p1248
aS'United Kingdom'
p1249
aS'Middle'
p1250
aS'Tennessee'
p1251
aS'New York County'
p1252
aS'Montana'
p1253
aS'New York City'
p1254
aS'Kings'
p1255
aS'Moscow'
p1256
aS'Warsaw'
p1257
asS'LOCATION:RIVER'
p1258
(lp1259
S'Thompson'
p1260
aS'James River'
p1261
aS'Murray'
p1262
aS'Barron'
p1263
aS'Dee'
p1264
asS'ORGANIZATION'
p1265
(lp1266
S'The Supreme Court'
p1267
aS'Edison'
p1268
aS'British Diabetic Association'
p1269
aS'Supreme Court'
p1270
aS'Continental'
p1271
aS'American Brands Inc.'
p1272
aS'Coast Guard'
p1273
aS'Federal Emergency Management Agency'
p1274
aS'Dodge'
p1275
aS'Brown'
p1276
aS'Scandinavian Airlines System'
p1277
aS'Columbia'
p1278
aS'Dillon Read'
p1279
aS'Hitachi Ltd.'
p1280
aS'Icahn'
p1281
aS'Salomon Brothers'
p1282
aS'Kellogg'
p1283
aS'Grumman'
p1284
aS'Japanese government'
p1285
aS'Cray Computer'
p1286
aS'Atlanta'
p1287
aS'Chemical Banking'
p1288
aS'legislators'
p1289
aS'Turner Broadcasting'
p1290
aS'Hargrave'
p1291
aS'GE'
p1292
aS'Lorillard'
p1293
aS'GM'
p1294
aS'General Motors'
p1295
aS'governments'
p1296
aS'Chicago Bears'
p1297
aS'Economists'
p1298
aS'Global'
p1299
aS'SIA'
p1300
aS'Nasdaq'
p1301
aS'Defense'
p1302
aS'MasterCard'
p1303
aS'Cowboys'
p1304
aS'Fidelity'
p1305
aS'American association'
p1306
aS'Lorillard Inc.'
p1307
aS'Hondas'
p1308
aS'hinder'
p1309
aS'Joann'
p1310
aS'force'
p1311
aS'British Petroleum'
p1312
aS'Charles Shaw'
p1313
aS'State'
p1314
aS'Burlington'
p1315
aS'3M'
p1316
aS'Kleinwort Benson'
p1317
aS'Maryland'
p1318
aS'McClatchy'
p1319
aS'Look'
p1320
aS'HUD'
p1321
aS'Diamandis Communications'
p1322
aS'Finmeccanica'
p1323
aS'Omnicare'
p1324
aS'Ford'
p1325
aS'Mazda'
p1326
aS'United Biscuits'
p1327
aS'Congressional'
p1328
aS'Agfa'
p1329
aS'Revco'
p1330
aS'Md'
p1331
aS'full'
p1332
aS'Banque Paribas'
p1333
aS'NFL'
p1334
aS'National Football League'
p1335
aS'The British'
p1336
aS'inner-city'
p1337
aS'baseball'
p1338
aS'Internationale'
p1339
aS'Sansui Electric'
p1340
aS'My'
p1341
aS'The association'
p1342
aS'congressional representatives'
p1343
aS'great'
p1344
aS'Associated'
p1345
aS'Lotus'
p1346
aS'Montreal Exchange'
p1347
aS'Energy'
p1348
aS'Newsweek'
p1349
aS'emergency care'
p1350
aS'MP'
p1351
aS'Wells Fargo'
p1352
aS'Minnesota Vikings'
p1353
aS'Conn'
p1354
aS'Victor'
p1355
aS'Group'
p1356
aS'Pan Am'
p1357
aS'Justice'
p1358
aS'Serious Fraud Office'
p1359
aS'unit'
p1360
aS'Appalachian Power'
p1361
aS'Allianz AG'
p1362
aS'Hewlett-Packard'
p1363
aS'Beecham'
p1364
aS'June'
p1365
aS'BSN'
p1366
aS'Visa'
p1367
aS'newsweekly'
p1368
aS'PaineWebber'
p1369
aS'commissioner'
p1370
aS'Boeing'
p1371
aS'LTV'
p1372
aS'Sotheby'
p1373
aS'American Brands'
p1374
aS'Wednesday'
p1375
aS'Knight-Ridder Inc.'
p1376
aS'Kodak'
p1377
aS'American'
p1378
aS'Blackfriar'
p1379
aS'Guy'
p1380
aS'DILLARD DEPARTMENT STORES'
p1381
aS'unaffiliated'
p1382
aS'Scania'
p1383
aS'Naval Institute'
p1384
aS'The plant'
p1385
aS'Ind'
p1386
aS'Seagate Technology'
p1387
aS'Tomorrow'
p1388
aS'Treasury Department'
p1389
aS'Shugart'
p1390
aS'Occidental Petroleum'
p1391
aS'IBM'
p1392
aS'Federal'
p1393
aS'cited'
p1394
aS'Washington Post'
p1395
aS'assumptions'
p1396
aS'General Electric'
p1397
aS'Cleveland Browns'
p1398
aS'chic'
p1399
aS'Australian'
p1400
aS'educational'
p1401
aS'BellSouth'
p1402
aS'The heavy'
p1403
aS'Dataproducts'
p1404
aS'Federal Deposit Insurance Corporation'
p1405
aS'Who'
p1406
aS'Macmillan group'
p1407
aS'Mack'
p1408
aS'Environmental Defense Fund'
p1409
aS'Toronto-Dominion Bank'
p1410
aS'International Paper'
p1411
aS'Nissho Iwai'
p1412
aS'European Investment Bank'
p1413
aS'confirmed'
p1414
aS'Central Intelligence Agency'
p1415
aS'chiefs'
p1416
aS'Connolly'
p1417
aS'Fogg'
p1418
aS'Paris'
p1419
aS'The Members'
p1420
aS'Apple Macintosh'
p1421
aS'response'
p1422
aS'World Resources Institute'
p1423
aS'Dreyfus Fund'
p1424
aS'Beth Israel Hospital'
p1425
aS'CRAY'
p1426
aS'Kansas City Chiefs'
p1427
aS'Democrats'
p1428
aS'American Electric Power'
p1429
aS'PNC'
p1430
aS'Dallas Cowboys'
p1431
aS'senators'
p1432
aS'What'
p1433
aS'task force'
p1434
aS'Grand Metropolitan PLC'
p1435
aS'The team'
p1436
aS'Saab-Scania AB'
p1437
aS'RJR Nabisco'
p1438
aS'Phillips'
p1439
aS'Morgan Guaranty Trust'
p1440
aS'Atlanta Falcons'
p1441
aS'Banque Nationale de Paris'
p1442
aS'Wham'
p1443
aS'MIT'
p1444
aS'Golden West Financial'
p1445
aS'Saudi Arabia'
p1446
aS'group'
p1447
aS'IRS records'
p1448
aS'Big Blue'
p1449
aS'United Press International'
p1450
aS'Nationwide Anglia Building Society'
p1451
aS'First Boston Corp'
p1452
aS'Harris'
p1453
aS'Kid Creole'
p1454
aS'Moody'
p1455
aS'Drexel Burnham Lambert'
p1456
aS'Che Guevara'
p1457
aS'PerkinElmer'
p1458
aS'Miami'
p1459
aS'Eastern Airlines'
p1460
aS'committees'
p1461
aS'Caa'
p1462
aS'Specialized'
p1463
aS'Refco'
p1464
aS'The Soviets'
p1465
aS'Liberal'
p1466
aS'Saunders'
p1467
aS'Four'
p1468
aS'Marist College'
p1469
aS'Treasury Secretary'
p1470
aS'Council'
p1471
aS'Credit Suisse'
p1472
aS'side'
p1473
aS'Wall Street'
p1474
aS'Gutenberghus'
p1475
aS'International Business Machines'
p1476
aS'Representatives'
p1477
aS'Mark Hopkins Hotel'
p1478
aS'Anyone'
p1479
aS'National Council'
p1480
aS'Treasury'
p1481
aS'navy'
p1482
aS'Digital Equipment'
p1483
aS'Ohio State University'
p1484
aS'Unisys'
p1485
aS'credit ratings'
p1486
aS'network'
p1487
aS'RTC'
p1488
aS'Chevron Corp.'
p1489
aS'air force'
p1490
aS'federal government'
p1491
aS'announced'
p1492
aS'Bloomingdale'
p1493
aS'Commerce'
p1494
aS'Sports Illustrated'
p1495
aS'SHV'
p1496
aS'Westpac'
p1497
aS'Indonesia'
p1498
aS'American Stock Exchange'
p1499
aS'Amoco Canada'
p1500
aS'United States'
p1501
aS'French government'
p1502
aS'N.Y.'
p1503
aS'Hewlett-Packard Co.'
p1504
aS'Senator'
p1505
aS'Atlantic Richfield Co.'
p1506
aS'McCaw Cellular'
p1507
aS'Afrika Korps'
p1508
aS'federal agencies'
p1509
aS'Lawson'
p1510
aS'MGM'
p1511
aS'Telxon'
p1512
aS'Nebraska'
p1513
aS'The State Department'
p1514
aS'Federal Deposit Insurance Corp'
p1515
aS'economists'
p1516
aS'Palestinian'
p1517
aS'Yale'
p1518
aS'Royal'
p1519
aS'International Business Machines Corp.'
p1520
aS'U.S. government'
p1521
aS'Time Warner Inc.'
p1522
aS'Mannesmann AG'
p1523
aS'Stars'
p1524
aS'Jackson'
p1525
aS'Small Business Administration'
p1526
aS'basketball'
p1527
aS'Transportation'
p1528
aS'Congress'
p1529
aS'ASA'
p1530
aS'SEC'
p1531
aS'Disneyland'
p1532
aS'Hanson'
p1533
aS'General Dynamics'
p1534
aS'Parliament'
p1535
aS'Prudential-Bache Securities'
p1536
aS'dethroned'
p1537
aS'Placer Dome'
p1538
aS'Whirlpool Corp.'
p1539
aS'Oracle'
p1540
aS'Democratic'
p1541
aS'RJR'
p1542
aS'Italiana'
p1543
aS'Seven'
p1544
aS'Defense Department'
p1545
aS'Fluor Corp.'
p1546
aS'stock market'
p1547
aS'Goldman Sachs'
p1548
aS'Sears'
p1549
aS'New York'
p1550
aS'political economy'
p1551
aS'Hurst'
p1552
aS'Court'
p1553
aS'Heritage Foundation'
p1554
aS'Republican Party'
p1555
aS'Cray'
p1556
aS'Douglas'
p1557
aS'Odeon'
p1558
aS'horsepower'
p1559
aS'Independent'
p1560
aS'Goldman'
p1561
aS'Fluor'
p1562
aS'Lotus Development Corp.'
p1563
aS'Provident'
p1564
aS'Kidder Peabody'
p1565
aS'forces'
p1566
aS'radio contact'
p1567
aS'Party'
p1568
aS'urge'
p1569
aS'Inner City Broadcasting'
p1570
aS'General Electric Capital'
p1571
aS'Rage'
p1572
aS'The business'
p1573
aS'Cornell University'
p1574
aS'First Boston Corp.'
p1575
aS'Vanguard'
p1576
aS'Ferranti'
p1577
aS'The'
p1578
aS'GOP'
p1579
aS'Elf Aquitaine'
p1580
aS'Agip'
p1581
aS'Contel'
p1582
aS'Beverly Hills'
p1583
aS'Burmah Oil'
p1584
aS'MCA'
p1585
aS'KPMG Peat Marwick'
p1586
aS'Cray Research'
p1587
aS'American weekly'
p1588
aS'Prudential Insurance'
p1589
aS'Goldman Sachs group'
p1590
aS'Northeast Utilities'
p1591
aS'McDonnell Douglas'
p1592
aS'Release 1.0'
p1593
aS'Reuters'
p1594
aS'Deloitte'
p1595
aS'Dartmouth'
p1596
aS'Lilly'
p1597
aS'Joint Chiefs'
p1598
aS'Ilford'
p1599
aS'Nationwide'
p1600
aS'Transportation Department'
p1601
aS'Budget Director'
p1602
aS'Republicans'
p1603
aS'Banco Ambrosiano'
p1604
aS'TVA'
p1605
aS'Caterpillar'
p1606
aS'Swedish Match'
p1607
aS'treasury'
p1608
aS'South Australian Government'
p1609
aS'congressional'
p1610
aS'Toronto-Dominion'
p1611
aS'Fiat'
p1612
aS'Control Data'
p1613
aS'Urban Land Institute'
p1614
aS'McClatchy Newspapers'
p1615
aS'Asian Art Museum'
p1616
aS'McCaw Cellular Communications'
p1617
aS'First Union'
p1618
aS'C-SPAN'
p1619
aS'Nixdorf Computer AG'
p1620
aS'Senators'
p1621
aS'NIH'
p1622
aS'Republican'
p1623
aS'Matra'
p1624
aS'Octel Communications'
p1625
aS'federal court'
p1626
aS'suggested'
p1627
aS'investigate'
p1628
aS'Qintex'
p1629
aS'The freeze'
p1630
aS'Education'
p1631
aS'Whirpool'
p1632
aS'Monogram'
p1633
aS'home-building'
p1634
aS'Merkur'
p1635
aS'ITT Corp.'
p1636
aS'Big Board'
p1637
aS'The move'
p1638
aS'Fox'
p1639
aS'seat'
p1640
aS'computer'
p1641
aS'enhanced'
p1642
aS'tuxedos'
p1643
aS'Bailey Controls'
p1644
aS'The Odeon'
p1645
aS'Edelman'
p1646
aS'federal'
p1647
aS'New York City'
p1648
aS'representatives'
p1649
aS'Broken Hill'
p1650
aS'Vanguard Group'
p1651
aS'Harvard'
p1652
aS'scorn'
p1653
aS'Mitsubishi'
p1654
aS'Commerzbank'
p1655
aS'economic theory'
p1656
aS'Henry Ford'
p1657
aS'The government'
p1658
aS'Pinnacle'
p1659
aS'U.S.'
p1660
aS'Democrat'
p1661
aS'British unit'
p1662
aS'go-ahead'
p1663
aS'Walt Disney Co.'
p1664
aS'Freddie Mac'
p1665
aS'legislature'
p1666
aS'protect'
p1667
aS'Northrop'
p1668
aS'Morgan Grenfell'
p1669
aS'CS First Boston'
p1670
aS'Dreyfus'
p1671
aS'Eli Lilly'
p1672
aS'Navy'
p1673
aS'Green'
p1674
aS'federal judge'
p1675
aS'Freeport-McMoRan'
p1676
aS'Western Union'
p1677
aS'Initial'
p1678
aS'Sachs'
p1679
aS'Amoco'
p1680
aS'Lotus Development'
p1681
aS'Los'
p1682
aS'endeavor'
p1683
aS'Capital Group'
p1684
aS'Disney'
p1685
aS'Calor Group'
p1686
aS'mechanical engineering'
p1687
aS'Atlanta Journal'
p1688
aS'State government'
p1689
aS'Marine Corps'
p1690
aS'Spoon'
p1691
aS'Kyodo news'
p1692
aS'wobbly'
p1693
aS'American Diabetes Association'
p1694
aS'London Times'
p1695
aS'Columbia University'
p1696
aS'Atlantic Richfield'
p1697
aS'Exxon'
p1698
aS'Tokyo'
p1699
aS'Dow Jones'
p1700
aS'Secretary'
p1701
aS'chicanery'
p1702
aS'Reebok International'
p1703
aS'Metropolitan Police'
p1704
aS'The Wall Street Journal'
p1705
aS'Call'
p1706
aS'City'
p1707
aS'congressional districts'
p1708
aS'WSJ'
p1709
aS'Fletcher Challenge'
p1710
aS'ARCO'
p1711
aS'municipal'
p1712
aS'The NFL Players Association'
p1713
aS'Dean Witter'
p1714
aS'Epson'
p1715
aS'Intel'
p1716
aS'NSC'
p1717
aS'Seagate'
p1718
aS'Touche Ross'
p1719
aS'Deutsche Bank'
p1720
aS'United Nations'
p1721
aS'Suez'
p1722
aS'independent'
p1723
aS'About'
p1724
aS'Allianz'
p1725
aS'Alliant'
p1726
aS'SHV Holdings'
p1727
aS'nationally'
p1728
aS'Raytheon'
p1729
aS'Control Data Corp.'
p1730
aS'Mellon Bank'
p1731
aS'Ford Motor Co'
p1732
aS'Philip Morris'
p1733
aS'Senate'
p1734
aS'budget director'
p1735
aS'Omnicare Inc.'
p1736
aS'United Kingdom'
p1737
aS'Royal Bank'
p1738
aS'Total'
p1739
aS'Mobil'
p1740
aS'First Tennessee Bank'
p1741
aS'White House'
p1742
aS'Rand McNally'
p1743
aS'United'
p1744
aS'Lincoln Savings'
p1745
aS'executive'
p1746
aS'BT'
p1747
aS'Finance Ministry'
p1748
aS'Washington State University'
p1749
aS'Comcast'
p1750
aS'seats'
p1751
aS'Aeroflot'
p1752
aS'Archer-Daniels-Midland'
p1753
aS'mortgage brokers'
p1754
aS'Australian government'
p1755
aS'Football'
p1756
aS'guaranteed'
p1757
aS'Shearson Lehman Hutton'
p1758
aS'Bear Stearns'
p1759
aS'American Express'
p1760
aS'Walmart'
p1761
aS'justices'
p1762
aS'News'
p1763
aS'The Pentagon'
p1764
aS'Esso'
p1765
aS'Givaudan'
p1766
aS'Hanson PLC'
p1767
aS'Kiss'
p1768
aS'government'
p1769
aS'big'
p1770
aS'Commons'
p1771
aS'Air'
p1772
aS'Thomson-CSF'
p1773
aS'Fifth Circuit'
p1774
aS'Calor'
p1775
aS'Chrysler'
p1776
aS'production units'
p1777
aS'New York Stock Exchange'
p1778
aS'Great Western'
p1779
aS'U.N.'
p1780
aS'San Diego Chargers'
p1781
aS'Merrill Lynch'
p1782
aS'security service'
p1783
aS'Boston University'
p1784
aS'Commerce Department'
p1785
aS'Capitol Hill'
p1786
aS'Air Force'
p1787
aS'San Diego Yacht Club'
p1788
aS'Compaq Computer'
p1789
aS'wire service'
p1790
aS'Bell Atlantic'
p1791
aS'Saab-Scania'
p1792
aS'Burmah'
p1793
aS'Bayer AG'
p1794
aS'Within'
p1795
aS'Texaco'
p1796
aS'PR Newswire'
p1797
aS'Commission'
p1798
aS'Two guys'
p1799
aS'Much'
p1800
aS'Perkin-Elmer'
p1801
aS'recommendation'
p1802
aS'International'
p1803
aS'Life'
p1804
aS'Nixdorf'
p1805
aS'Federal Home Loan Bank'
p1806
aS'Salomon Brothers Inc.'
p1807
aS'Hiram'
p1808
aS'legislator'
p1809
aS'National Bureau'
p1810
aS'Morgan Stanley'
p1811
aS'News Corp'
p1812
aS'Pacific Bell'
p1813
aS'Time magazine'
p1814
aS'Economics'
p1815
aS'Times'
p1816
aS'Sweden'
p1817
aS'Fujitsu'
p1818
aS'Georgia-Pacific'
p1819
aS'Graduate School'
p1820
aS'Pennzoil'
p1821
aS'Microsoft'
p1822
aS'Union Bank'
p1823
aS'Pentagon'
p1824
aS'army'
p1825
aS'Metro Bank'
p1826
aS'airline'
p1827
aS'Chevron'
p1828
aS'federal funding'
p1829
aS'congressman'
p1830
aS'Tennessee Valley Authority'
p1831
aS'Really'
p1832
aS'Swedish'
p1833
aS'outlook'
p1834
aS'Montedison'
p1835
aS'Dean Witter Reynolds'
p1836
aS'NEC'
p1837
aS'Catholic Healthcare West'
p1838
aS'Delaware Chancery Court'
p1839
aS'CNN'
p1840
aS'Arkansas'
p1841
aS'Quebecor'
p1842
aS'Commonwealth Edison'
p1843
aS'Westdeutsche Landesbank Girozentrale'
p1844
aS'Empty'
p1845
aS'Stamford school'
p1846
aS'North Point Press'
p1847
aS'area'
p1848
aS'Eastman Kodak Co.'
p1849
aS'NEC Corp.'
p1850
aS'Citicorp'
p1851
aS'Castrol'
p1852
aS'Koch'
p1853
aS'HOT TOPIC'
p1854
aS'Pan American World Airways'
p1855
aS'The Times'
p1856
aS'First Boston'
p1857
aS'Ekco'
p1858
aS'Vermont College'
p1859
aS'Eddie Bauer'
p1860
aS'Southern Methodist'
p1861
aS'Merrill Lynch Capital Markets'
p1862
aS'Dresdner Bank'
p1863
aS'Intel Corp.'
p1864
aS'federal appeals court'
p1865
aS'Commodity Exchange'
p1866
aS'Lancia'
p1867
aS'federal funds'
p1868
aS'Withrow High School'
p1869
aS'bankruptcy court'
p1870
aS'Seagram'
p1871
aS'Minneapolis police'
p1872
aS'Sheraton'
p1873
aS'House'
p1874
aS'Esther Dyson'
p1875
aS'United Nation'
p1876
aS'McCaskey'
p1877
aS'Anglia'
p1878
aS'Personal'
p1879
aS'Six'
p1880
aS'Westin'
p1881
aS'Thursday'
p1882
aS'fellow'
p1883
aS'Avis'
p1884
aS'New York Times'
p1885
aS'SWAPO'
p1886
aS'FEMA'
p1887
aS'Hambros Bank'
p1888
aS'USX'
p1889
aS'Knight-Ridder'
p1890
aS'Barilla Group'
p1891
aS'daily news'
p1892
aS'Princeton'
p1893
aS'Dartmouth College'
p1894
aS'senatorial'
p1895
aS'Fuji'
p1896
aS'Five'
p1897
aS'Hurricanes'
p1898
aS'Ohio State'
p1899
aS'Harvard University'
p1900
aS'Jaguar'
p1901
aS'brothers'
p1902
aS'Pacific Telesis Group'
p1903
aS'television network'
p1904
aS'GE Capital'
p1905
aS'football'
p1906
aS'Mary Kay'
p1907
aS'No doubt'
p1908
aS'Deere'
p1909
aS'District Judge'
p1910
aS'HHS'
p1911
aS'Xinhua News Agency'
p1912
aS'Beneficial'
p1913
aS'midcontinent'
p1914
aS'Thus'
p1915
aS'Penn Central'
p1916
aS'uncovered'
p1917
aS'Justice Department'
p1918
aS'United Illuminating'
p1919
aS'MCA Inc.'
p1920
aS'Fidelity Investments'
p1921
aS'federal agency'
p1922
asS'WORK_OF_ART:PLAY'
p1923
(lp1924
S'Banco'
p1925
asS'WORK_OF_ART'
p1926
(lp1927
S'Samuel'
p1928
aS'ESPN'
p1929
aS'gradual'
p1930
aS'Jeopardy'
p1931
aS'declaration'
p1932
aS'Daniel'
p1933
aS'running scared'
p1934
aS'Regan'
p1935
aS'Judith'
p1936
aS'Asahi'
p1937
aS'dance academy'
p1938
aS'Spiegel'
p1939
aS'The agency'
p1940
aS'Surrender'
p1941
aS'no-brainer'
p1942
aS'The panel'
p1943
aS'One week'
p1944
aS'Worth'
p1945
aS'Days'
p1946
aS'Arkansas Democrat'
p1947
aS'She'
p1948
aS'report'
p1949
aS'Where'
p1950
aS'Once'
p1951
aS'articles'
p1952
aS'television stations'
p1953
aS'Chesley'
p1954
aS'Time magazine'
p1955
aS'Whatever'
p1956
aS'The report'
p1957
aS'These days'
p1958
aS'notorious'
p1959
aS'hoodwinked'
p1960
aS'Hill Street Blues'
p1961
aS'TV sets'
p1962
aS'unexpected'
p1963
aS'The Nation'
p1964
aS'PR Newswire'
p1965
aS'Whoopee'
p1966
aS'Capital Gang'
p1967
aS'Actually'
p1968
aS'Baker Boys'
p1969
aS'The National'
p1970
aS'banal'
p1971
aS'John'
p1972
aS'Look'
p1973
aS'Life'
p1974
aS'televised'
p1975
aS'strategic review'
p1976
aS'BOTH SIDES NOW'
p1977
aS'If'
p1978
aS'crush'
p1979
aS'New York'
p1980
aS'Report'
p1981
aS'After Hours'
p1982
aS'LA Weekly'
p1983
aS'Former'
p1984
aS'Proverbs'
p1985
aS'None'
p1986
aS'Sports Illustrated'
p1987
aS'Brady'
p1988
aS'The National Interest'
p1989
aS'screen'
p1990
aS'Up'
p1991
aS'Progressive Architecture'
p1992
aS'According'
p1993
aS'unwanted'
p1994
aS'shivers'
p1995
aS'imagine'
p1996
aS'Times'
p1997
aS'The proposal'
p1998
aS'evades'
p1999
aS'Associated'
p2000
aS'likened'
p2001
aS'Food Research'
p2002
aS'People'
p2003
aS'Money'
p2004
aS'transition'
p2005
aS'Peabody'
p2006
aS'Business Week magazine'
p2007
aS'place'
p2008
aS'Select'
p2009
aS'outlook'
p2010
aS'Please'
p2011
aS'TVs'
p2012
aS'500 miles'
p2013
aS'Book'
p2014
aS'rarely'
p2015
aS'The bill'
p2016
aS'Monday'
p2017
aS'Atlanta Journal'
p2018
aS'Popular Photography'
p2019
aS'crossfire'
p2020
aS'faithfully'
p2021
aS'films'
p2022
aS'London Times'
p2023
aS'Policy Review'
p2024
aS'The Times'
p2025
aS'Chuck'
p2026
aS'News Tribune'
p2027
aS'The Fabulous Baker Boys'
p2028
aS'The project'
p2029
aS'Grease 2'
p2030
aS'Following'
p2031
aS'Don Quixote'
p2032
aS'Mark'
p2033
aS'The monthly'
p2034
aS'Lonesome Dove'
p2035
aS'wire service'
p2036
aS'television'
p2037
aS'Old'
p2038
aS'Office'
p2039
aS'rage'
p2040
aS'House'
p2041
aS'late Friday'
p2042
aS'the class'
p2043
aS'future'
p2044
aS'The Wall Street Journal'
p2045
aS'Junge Welt'
p2046
aS'Newsweek'
p2047
aS'glory days'
p2048
aS'Inc'
p2049
aS'Prime Time Live'
p2050
aS'stated'
p2051
aS'blips'
p2052
aS'WSJ'
p2053
aS'Catch-22'
p2054
aS'These Boots'
p2055
aS'Details'
p2056
aS'New York Times'
p2057
aS'ready'
p2058
aS'film'
p2059
aS'Independent'
p2060
aS'Plans'
p2061
aS'depending'
p2062
aS'TV'
p2063
aS'daily news'
p2064
aS'Yesterday'
p2065
aS'On top'
p2066
aS'shocker'
p2067
aS'Cleo award'
p2068
aS'Seventeen'
p2069
aS'Washington Post'
p2070
aS'briefcase'
p2071
aS'youth daily'
p2072
aS'The'
p2073
aS'The Office'
p2074
aS'eerie'
p2075
aS'It'
p2076
aS'One'
p2077
aS'Foiled'
p2078
aS'American weekly'
p2079
aS'Beyond'
p2080
aS'Banco'
p2081
aS'Fame'
p2082
aS'outnumbered'
p2083
asS'EVENT:HURRICANE'
p2084
(lp2085
S'Hurricane Hugo'
p2086
aS'Hurricane Jerry'
p2087
aS'hurricanes'
p2088
asS'CONTACT_INFO:url'
p2089
(lp2090
S'criticism'
p2091
aS'About'
p2092
aS'posting'
p2093
aS'business directories'
p2094
aS'It'
p2095
aS'crush'
p2096
aS'ecological'
p2097
aS'future'
p2098
aS'place'
p2099
aS'The project'
p2100
aS'Delicious'
p2101
aS'In'
p2102
aS'directory'
p2103
aS'assumption'
p2104
aS'post'
p2105
aS'Where'
p2106
aS'environmentally'
p2107
asS'FACILITY'
p2108
(lp2109
S'White House'
p2110
aS'Ellis'
p2111
aS'Santa Clara'
p2112
aS'Hospital'
p2113
aS'Vatican'
p2114
aS'Seventh Avenue'
p2115
aS'Mark Hopkins Hotel'
p2116
aS'Market Street'
p2117
aS'DPC'
p2118
aS'City Hall'
p2119
aS'Red Square'
p2120
aS'The slowdown'
p2121
aS'Bass Strait'
p2122
aS'Golden Gate Park'
p2123
aS'Times Square'
p2124
aS'opened'
p2125
aS'Eiffel Tower'
p2126
aS'Falls'
p2127
aS'great pyramids'
p2128
aS'Disneyland'
p2129
aS'North Sea oil'
p2130
aS'The main'
p2131
aS'The Pentagon'
p2132
aS'San Francisco International Airport'
p2133
aS'victims'
p2134
aS'Columbia center'
p2135
aS'Nationale'
p2136
aS'Candlestick Park'
p2137
aS'Leaning Tower'
p2138
aS'falls'
p2139
aS'Asian Art Museum'
p2140
aS'Fogg'
p2141
aS'Trade Center'
p2142
aS'Withrow High School'
p2143
aS'Gorky Street'
p2144
aS'Murray'
p2145
aS'uncovered'
p2146
aS'chamber'
p2147
aS'shore'
p2148
aS'condominium'
p2149
aS'emergency care'
p2150
aS'Interstate 30'
p2151
aS'Interstate 880'
p2152
asS'PRODUCT:VEHICLE'
p2153
(lp2154
S'bus routes'
p2155
aS'trucks'
p2156
aS'buses'
p2157
aS'Scorpio'
p2158
aS'Mercury Sable'
p2159
aS'touring'
p2160
aS'pickup'
p2161
aS'luxury car'
p2162
aS'truck'
p2163
aS'luxury'
p2164
aS'Thema'
p2165
aS'sedan'
p2166
aS'Every'
p2167
aS'Convertible'
p2168
aS'trailer'
p2169
asS'GPE'
p2170
(lp2171
S'Canada'
p2172
aS'Edison'
p2173
aS'Many'
p2174
aS'Ore.'
p2175
aS'Indiana'
p2176
aS'Louisiana'
p2177
aS'Monterey Park'
p2178
aS'Columbia'
p2179
aS'Byzantine'
p2180
aS'Paris'
p2181
aS'China'
p2182
aS'Atlanta'
p2183
aS'Canadian'
p2184
aS'Holliston'
p2185
aS'continued'
p2186
aS'Cubans'
p2187
aS'Charlotte'
p2188
aS'Groton'
p2189
aS'South Korea'
p2190
aS'Seattle'
p2191
aS'El Monte'
p2192
aS'Turks'
p2193
aS'Denver'
p2194
aS'Burlington'
p2195
aS'Newcomb'
p2196
aS'East'
p2197
aS'Arizona'
p2198
aS'Wash'
p2199
aS'San Diego'
p2200
aS'RICHMOND'
p2201
aS'America'
p2202
aS'LaSalle'
p2203
aS'Colorado Springs'
p2204
aS'Md'
p2205
aS'mull'
p2206
aS'Cleveland'
p2207
aS'The British'
p2208
aS'high point'
p2209
aS'English'
p2210
aS'Ohio'
p2211
aS'Namibian'
p2212
aS'Chinese'
p2213
aS'Italian'
p2214
aS'Pisa'
p2215
aS'Canton'
p2216
aS'Richmond'
p2217
aS'Louisville'
p2218
aS'Pasadena'
p2219
aS'Brazilian'
p2220
aS'Ellis'
p2221
aS'Indianapolis'
p2222
aS'Danbury'
p2223
aS'Seymour'
p2224
aS'Belgique'
p2225
aS'N.J.'
p2226
aS'Hong Kong'
p2227
aS'Lake Charles'
p2228
aS'Braidwood'
p2229
aS'Denmark'
p2230
aS'Philippines'
p2231
aS'American'
p2232
aS'Aden'
p2233
aS'Montreal'
p2234
aS'German'
p2235
aS'Lebanon'
p2236
aS'Oklahoma City'
p2237
aS'Denton'
p2238
aS'Dutch'
p2239
aS'Australian'
p2240
aS'Calif'
p2241
aS'Irving'
p2242
aS'Irvine'
p2243
aS'Hartford'
p2244
aS'U.K'
p2245
aS'Eritrea'
p2246
aS'Alaskan'
p2247
aS'British'
p2248
aS'Nebraska'
p2249
aS'Lufkin'
p2250
aS'Swiss'
p2251
aS'Syria'
p2252
aS'All'
p2253
aS'Mexico'
p2254
aS'Nashua'
p2255
aS'Japanese'
p2256
aS'Tennessee'
p2257
aS'Greece'
p2258
aS'Mississippi'
p2259
aS'Hills'
p2260
aS'Norwalk'
p2261
aS'Minnesota'
p2262
aS'Texas'
p2263
aS'Saudi Arabia'
p2264
aS'Stanton'
p2265
aS'Brookline'
p2266
aS'Westborough'
p2267
aS'Armenian'
p2268
aS'West Virginia'
p2269
aS'Lublin'
p2270
aS'Brussels'
p2271
aS'Spain'
p2272
aS'prosper'
p2273
aS'British Columbia'
p2274
aS'Wilcox'
p2275
aS'Miami'
p2276
aS'nation'
p2277
aS'Rome'
p2278
aS'Can'
p2279
aS'Vatican'
p2280
aS'Carballo'
p2281
aS'Mogadishu'
p2282
aS'Taipei'
p2283
aS'India'
p2284
aS'Fort Worth'
p2285
aS'Seville'
p2286
aS'Milan'
p2287
aS'Gary'
p2288
aS'Stanley'
p2289
aS'Budapest'
p2290
aS'Peru'
p2291
aS'Hayward'
p2292
aS'Michigan'
p2293
aS'Eritrean'
p2294
aS'Palestinian politics'
p2295
aS'Cuban'
p2296
aS'Indonesia'
p2297
aS'WASHINGTON'
p2298
aS'Watertown'
p2299
aS'N.Y.'
p2300
aS'Buffalo'
p2301
aS'Bulgaria'
p2302
aS'South Africa'
p2303
aS'Boston'
p2304
aS'Raleigh'
p2305
aS'Brazil'
p2306
aS'Turkey'
p2307
aS'U.K.'
p2308
aS'Oklahoma'
p2309
aS'There'
p2310
aS'Capel'
p2311
aS'Belgium'
p2312
aS'Iraq'
p2313
aS'Shaker Heights'
p2314
aS'Bay Area'
p2315
aS'Ky'
p2316
aS'Hastings'
p2317
aS'Colorado'
p2318
aS'Concord'
p2319
aS'New Orleans'
p2320
aS'The United Kingdom'
p2321
aS'S.C.'
p2322
aS'Nicaragua'
p2323
aS'Trinidad'
p2324
aS'Libyans'
p2325
aS'ACCO'
p2326
aS'Chicago'
p2327
aS'Philadelphia'
p2328
aS'Rowe'
p2329
aS'Maryland'
p2330
aS'Idaho'
p2331
aS'Iceland'
p2332
aS'Germany'
p2333
aS'South Carolina'
p2334
aS'Decatur'
p2335
aS'Bakersfield'
p2336
aS'Frederick'
p2337
aS'Los Angeles County'
p2338
aS'Eritreans'
p2339
aS'British colony'
p2340
aS'Menomonee Falls'
p2341
aS'Iowa'
p2342
aS'Far East'
p2343
aS'Hawaiian'
p2344
aS'Beverly Hills'
p2345
aS'Lisbon'
p2346
aS'Robinson'
p2347
aS'Union'
p2348
aS'Bixby'
p2349
aS'Ethiopia'
p2350
aS'We'
p2351
aS'Redmond'
p2352
aS'Sacramento'
p2353
aS'Huntington Beach'
p2354
aS'French'
p2355
aS'Ann Arbor'
p2356
aS'York'
p2357
aS'Netherlands'
p2358
aS'D.C.'
p2359
aS'Finnish'
p2360
aS'Jefferson City'
p2361
aS'Soviet'
p2362
aS'Gloucester'
p2363
aS'Moore'
p2364
aS'New Jersey'
p2365
aS'West German'
p2366
aS'Washington'
p2367
aS'Minneapolis'
p2368
aS'Manchester'
p2369
aS'Cananea'
p2370
aS'Dalton'
p2371
aS'Pawtucket'
p2372
aS'Burnham'
p2373
aS'Soviet-backed'
p2374
aS'Rochester'
p2375
aS'District'
p2376
aS'Knoxville'
p2377
aS'France'
p2378
aS'Clintonville'
p2379
aS'Wisconsin'
p2380
aS'N.H.'
p2381
aS'Benton Harbor'
p2382
aS'New York City'
p2383
aS'DeWitt'
p2384
aS'Oregon'
p2385
aS'New York'
p2386
aS'Los Angeles'
p2387
aS'Rockford'
p2388
aS'nationwide'
p2389
aS'U.S.'
p2390
aS'Florida'
p2391
aS'Burton'
p2392
aS'barely'
p2393
aS'Ethiopian'
p2394
aS'North Carolina'
p2395
aS'Malaysia'
p2396
aS'Tacoma'
p2397
aS'Wan'
p2398
aS'Santa Clara'
p2399
aS'Turkish'
p2400
aS'Panama'
p2401
aS'Delaware'
p2402
aS'Luxembourg'
p2403
aS'Ireland'
p2404
aS'Santa Ana'
p2405
aS'Bougainville'
p2406
aS'Riverside'
p2407
aS'Calif.'
p2408
aS'British Parliament'
p2409
aS'Most'
p2410
aS'Asheville'
p2411
aS'California'
p2412
aS'Moss'
p2413
aS'Thailand'
p2414
aS'Toronto'
p2415
aS'New York State'
p2416
aS'Georgia'
p2417
aS'Conn.'
p2418
aS'N.C.'
p2419
aS'San Francisco-based'
p2420
aS'Poland'
p2421
aS'Anaheim'
p2422
aS'Davenport'
p2423
aS'Braintree'
p2424
aS'Co'
p2425
aS'Tenn.'
p2426
aS'Atlantans'
p2427
aS'Asmara'
p2428
aS'Taiwan'
p2429
aS'Miss'
p2430
aS'Bainbridge Island'
p2431
aS'City'
p2432
aS'Italy'
p2433
aS'Los Gatos'
p2434
aS'Sudan'
p2435
aS'Shanghai'
p2436
aS'Athens'
p2437
aS'Addis Ababa'
p2438
aS'London-based'
p2439
aS'Somali'
p2440
aS'Hammerton'
p2441
aS'Lowell'
p2442
aS'Israel'
p2443
aS'Chicago-based'
p2444
aS'Papua New Guinea'
p2445
aS'New Hampshire'
p2446
aS'North American'
p2447
aS'Vermont'
p2448
aS'Third'
p2449
aS'Ottoman Empire'
p2450
aS'Kansas City'
p2451
aS'Some people'
p2452
aS'Suisse'
p2453
aS'IN'
p2454
aS'Mitchell'
p2455
aS'Soviet Union'
p2456
aS'Houston'
p2457
aS'United Kingdom'
p2458
aS'Milwaukee'
p2459
aS'Portland'
p2460
aS'Randolph'
p2461
aS'San Francisco'
p2462
aS'Argentina'
p2463
aS'Argentine'
p2464
aS'Belgian'
p2465
aS'Berkeley'
p2466
aS'Israelis'
p2467
aS'Both'
p2468
aS'Menlo Park'
p2469
aS'Of'
p2470
aS'Pine Bluff'
p2471
aS'Corona'
p2472
aS'pop'
p2473
aS'Missouri'
p2474
aS'Cincinnati'
p2475
aS'New Zealand'
p2476
aS'Lesko'
p2477
aS'Waltham'
p2478
aS'England'
p2479
aS'London'
p2480
aS'Polish'
p2481
aS'Warren'
p2482
aS'Swedish'
p2483
aS'Californians'
p2484
aS'Milpitas'
p2485
aS'Somalis'
p2486
aS'Somalia'
p2487
aS'Washington State'
p2488
aS'Mossman'
p2489
aS'Norton'
p2490
aS'Eugene'
p2491
aS'Danish'
p2492
aS'Seoul'
p2493
aS'Cuba'
p2494
aS'Pittsburgh'
p2495
aS'literally'
p2496
aS'Moscow'
p2497
aS'Montana'
p2498
aS'Massachusetts'
p2499
aS'chefs'
p2500
aS'Sweden'
p2501
aS'Australia'
p2502
aS'city hall'
p2503
aS'Longmont'
p2504
aS'Peabody'
p2505
aS'Americans'
p2506
aS'UK'
p2507
aS'Japan'
p2508
aS'Guangdong'
p2509
aS'Dallas'
p2510
aS'Greenville'
p2511
aS'Israeli'
p2512
aS'Fairfield'
p2513
aS'Arkansas'
p2514
aS'West Germany'
p2515
aS'Lanzhou'
p2516
aS'Lawrence'
p2517
aS'Littleton'
p2518
aS'Santa Cruz'
p2519
aS'Berbera'
p2520
aS'Assab'
p2521
aS'Little Rock'
p2522
aS'South Australian'
p2523
aS'Detroit'
p2524
aS'Russian'
p2525
aS'Namibia'
p2526
aS'Switzerland'
p2527
aS'Johnston'
p2528
aS'Belz'
p2529
aS'Britain'
p2530
aS'Lancaster'
p2531
aS'USA'
p2532
aS'New'
p2533
aS'Spartan'
p2534
aS'Tokyo'
p2535
aS'East Germany'
p2536
aS'republic'
p2537
aS'nice'
p2538
aS'Omaha'
p2539
aS'Yuba City'
p2540
aS'Palo Alto'
p2541
aS'Baltimore'
p2542
aS'New Haven'
p2543
aS'Singapore'
p2544
aS'Am'
p2545
aS'Colo'
p2546
aS'Stamford'
p2547
aS'Soviets'
p2548
aS'Oakland'
p2549
aS'Warsaw'
p2550
asS'ORGANIZATION:RELIGIOUS'
p2551
(lp2552
S'Blackfriar'
p2553
asS'DISEASE'
p2554
(lp2555
S'nervousness'
p2556
aS'crazy'
p2557
aS'hypoglycemia'
p2558
aS'cancer'
p2559
aS'habit'
p2560
aS'bleeding'
p2561
aS'injury'
p2562
aS'harm'
p2563
aS'dead'
p2564
aS'high'
p2565
aS'fits'
p2566
aS'diabetics'
p2567
aS'kill'
p2568
aS'rash'
p2569
aS'malignant mesothelioma'
p2570
aS'pregnancy'
p2571
aS'cold'
p2572
aS'injuries'
p2573
aS'headaches'
p2574
aS'killings'
p2575
aS'fit'
p2576
aS'choking'
p2577
aS'muted'
p2578
aS'nervous'
p2579
aS'squeeze'
p2580
aS'comfort'
p2581
aS'shocked'
p2582
aS'late'
p2583
aS'narrowing'
p2584
aS'split personality'
p2585
aS'convulsions'
p2586
aS'reading'
p2587
aS'excited'
p2588
aS'painful'
p2589
aS'breakdown'
p2590
aS'asbestosis'
p2591
aS'pain'
p2592
aS'lungs'
p2593
aS'traumatic'
p2594
aS'dependent'
p2595
aS'confusion'
p2596
aS'attention'
p2597
aS'fat'
p2598
aS'hurt'
p2599
aS'Despair'
p2600
aS'haunted'
p2601
aS'wounds'
p2602
aS'wounded'
p2603
aS'swells'
p2604
aS'killing'
p2605
aS'diabetes'
p2606
aS'abused'
p2607
aS'wide'
p2608
aS'term'
p2609
aS'anxiety'
p2610
aS'defective'
p2611
aS'infertility'
p2612
aS'depressed'
p2613
aS'hypoglycemic'
p2614
aS'clear'
p2615
aS'paralysis'
p2616
aS'It'
p2617
aS'premature'
p2618
aS'risk factors'
p2619
aS'anxious'
p2620
aS'sexually transmitted diseases'
p2621
aS'disturbed'
p2622
aS'expecting'
p2623
aS'degenerated'
p2624
aS'emotional'
p2625
aS'health concerns'
p2626
aS'lung cancer'
p2627
aS'incomplete'
p2628
asS'FACILITY:AIRPORT'
p2629
(lp2630
S'San Francisco International Airport'
p2631
asS'ORGANIZATION:MUSEUM'
p2632
(lp2633
S'uncovered'
p2634
aS'White House'
p2635
aS'Fogg'
p2636
aS'Asian Art Museum'
p2637
asS'LOCATION:CONTINENT'
p2638
(lp2639
S'Europe'
p2640
aS'European'
p2641
aS'Africa'
p2642
aS'Asia'
p2643
aS'South American'
p2644
aS'North America'
p2645
aS'Asian'
p2646
aS'America'
p2647
aS'continent'
p2648
aS'Europeans'
p2649
asS'WORK_OF_ART:BOOK'
p2650
(lp2651
S'outlook'
p2652
aS'transition'
p2653
aS'Associated'
p2654
aS'strategic review'
p2655
aS'stated'
p2656
aS'The Nation'
p2657
aS'gradual'
p2658
aS'PR Newswire'
p2659
aS'Whoopee'
p2660
aS'None'
p2661
aS'Catch-22'
p2662
aS'Mark'
p2663
aS'Book'
p2664
aS'Daniel'
p2665
aS'The National'
p2666
aS'New York Times'
p2667
aS'banal'
p2668
aS'Regan'
p2669
aS'John'
p2670
aS'Judith'
p2671
aS'Asahi'
p2672
aS'Independent'
p2673
aS'Life'
p2674
aS'Atlanta Journal'
p2675
aS'Popular Photography'
p2676
aS'daily news'
p2677
aS'Samuel'
p2678
aS'Worth'
p2679
aS'crush'
p2680
aS'future'
p2681
aS'Spiegel'
p2682
aS'Report'
p2683
aS'LA Weekly'
p2684
aS'London Times'
p2685
aS'Former'
p2686
aS'declaration'
p2687
aS'Policy Review'
p2688
aS'Proverbs'
p2689
aS'The Times'
p2690
aS'WSJ'
p2691
aS'Sports Illustrated'
p2692
aS'Look'
p2693
aS'The National Interest'
p2694
aS'youth daily'
p2695
aS'Time magazine'
p2696
aS'News Tribune'
p2697
aS'Times'
p2698
aS'Arkansas Democrat'
p2699
aS'Details'
p2700
aS'She'
p2701
aS'If'
p2702
aS'report'
p2703
aS'Don Quixote'
p2704
aS'The'
p2705
aS'Where'
p2706
aS'The monthly'
p2707
aS'Once'
p2708
aS'articles'
p2709
aS'Seventeen'
p2710
aS'Junge Welt'
p2711
aS'Old'
p2712
aS'Food Research'
p2713
aS'People'
p2714
aS'eerie'
p2715
aS'It'
p2716
aS'Business Week magazine'
p2717
aS'The report'
p2718
aS'New York'
p2719
aS'place'
p2720
aS'Washington Post'
p2721
aS'The Wall Street Journal'
p2722
aS'Newsweek'
p2723
aS'American weekly'
p2724
aS'wire service'
p2725
aS'Inc'
p2726
aS'no-brainer'
p2727
aS'Select'
p2728
aS'The project'
p2729
asS'ORGANIZATION:POLITICAL'
p2730
(lp2731
S'independent'
p2732
aS'Democratic'
p2733
aS'Liberal'
p2734
aS'unaffiliated'
p2735
aS'Republican Party'
p2736
aS'Republicans'
p2737
aS'Democrat'
p2738
aS'Green'
p2739
aS'Democrats'
p2740
aS'SWAPO'
p2741
aS'Ind'
p2742
aS'Party'
p2743
aS'Republican'
p2744
aS'GOP'
p2745
asS'ORGANIZATION:HOTEL'
p2746
(lp2747
S'Mark Hopkins Hotel'
p2748
asS'PRODUCT'
p2749
(lp2750
S'champagne bottles'
p2751
aS'bus routes'
p2752
aS'wrack'
p2753
aS'Thema'
p2754
aS'Beef'
p2755
aS'buses'
p2756
aS'Scorpio'
p2757
aS'Donuts'
p2758
aS'cotton candy'
p2759
aS'ale'
p2760
aS'gunpoint'
p2761
aS'touring'
p2762
aS'ginger'
p2763
aS'Sugar'
p2764
aS'luxury car'
p2765
aS'Coconuts'
p2766
aS'sparkling'
p2767
aS'soybean'
p2768
aS'apples'
p2769
aS'soft drinks'
p2770
aS'milk'
p2771
aS'Knife'
p2772
aS'apple'
p2773
aS'biscuits'
p2774
aS'sugar mills'
p2775
aS'Biscuit'
p2776
aS'shells'
p2777
aS'Mercury Sable'
p2778
aS'apple tree'
p2779
aS'ice'
p2780
aS'sugar'
p2781
aS'pickup'
p2782
aS'cherries'
p2783
aS'Every'
p2784
aS'luxury'
p2785
aS'Convertible'
p2786
aS'ranging'
p2787
aS'knife'
p2788
aS'Must'
p2789
aS'sages'
p2790
aS'apple pie'
p2791
aS'corn'
p2792
aS'salmon'
p2793
aS'peas'
p2794
aS'Guarana'
p2795
aS'chocolate'
p2796
aS'eggs'
p2797
aS'bean'
p2798
aS'lemons'
p2799
aS'sedan'
p2800
aS'fruit juices'
p2801
aS'Red Delicious'
p2802
aS'Egg'
p2803
aS'bleed'
p2804
aS'raising'
p2805
aS'extreme'
p2806
aS'apple trees'
p2807
aS'trucks'
p2808
aS'distilling'
p2809
aS'soybean oil'
p2810
aS'doughnut shop'
p2811
aS'soft drink'
p2812
aS'Seagram'
p2813
aS'tree'
p2814
aS'gun'
p2815
aS'gum'
p2816
aS'burgers'
p2817
aS'beverage'
p2818
aS'truck'
p2819
aS'Grads'
p2820
aS'Soybean'
p2821
aS'broad'
p2822
aS'cake'
p2823
aS'egg'
p2824
aS'trailer'
p2825
asS'FACILITY:BUILDING'
p2826
(lp2827
S'White House'
p2828
aS'Withrow High School'
p2829
aS'The slowdown'
p2830
aS'Santa Clara'
p2831
aS'chamber'
p2832
aS'Columbia center'
p2833
aS'Hospital'
p2834
aS'Candlestick Park'
p2835
aS'Leaning Tower'
p2836
aS'Mark Hopkins Hotel'
p2837
aS'uncovered'
p2838
aS'Asian Art Museum'
p2839
aS'Fogg'
p2840
aS'emergency care'
p2841
aS'Trade Center'
p2842
aS'condominium'
p2843
aS'City Hall'
p2844
aS'great pyramids'
p2845
aS'The Pentagon'
p2846
aS'Eiffel Tower'
p2847
aS'opened'
p2848
asS'EVENT:WAR'
p2849
(lp2850
S'executed'
p2851
aS'1906 earthquake'
p2852
aS'presence'
p2853
aS'drug war'
p2854
aS'Panama'
p2855
aS'Two'
p2856
aS'defeated'
p2857
aS'executions'
p2858
aS'ended'
p2859
aS'crusade'
p2860
aS'The strike'
p2861
aS'rising'
p2862
aS'dropped'
p2863
aS'battleground'
p2864
aS'National Day'
p2865
aS'advancing'
p2866
aS'bombing'
p2867
aS'II'
p2868
aS'troubles'
p2869
aS'attack'
p2870
aS'Armenian'
p2871
aS'disappear'
p2872
aS'capital'
p2873
aS'Cuban government'
p2874
aS'incidents'
p2875
aS'falling'
p2876
aS'troubled'
p2877
aS'911'
p2878
aS'surprised'
p2879
aS'World War I'
p2880
aS'Pentagon'
p2881
aS'February'
p2882
aS'October'
p2883
aS'Cuban Revolution'
p2884
aS'triggered'
p2885
aS'Armenians'
p2886
aS'reclaims'
p2887
aS'fell'
p2888
aS'capturing'
p2889
aS'fall'
p2890
aS'sweeping'
p2891
aS'resisted'
p2892
aS'execution'
p2893
aS'ongoing crisis'
p2894
aS'backlash'
p2895
aS'Armenian Genocide'
p2896
aS'First'
p2897
aS'revolutionary'
p2898
aS'loss'
p2899
aS'execute'
p2900
aS'engage'
p2901
aS'World War II'
p2902
aS'attacks'
p2903
aS'confronting'
p2904
aS'Vittoria'
p2905
aS'Angola'
p2906
aS'Second'
p2907
aS'genocide'
p2908
aS'defeat'
p2909
aS'anti-Soviet'
p2910
aS'fallen'
p2911
aS'Tiananmen Square'
p2912
aS'death sentence'
p2913
asS'ORGANIZATION:GOVERNMENT'
p2914
(lp2915
S'White House'
p2916
aS'senators'
p2917
aS'task force'
p2918
aS'Japanese government'
p2919
aS'executive'
p2920
aS'Supreme Court'
p2921
aS'Finance Ministry'
p2922
aS'seats'
p2923
aS'Congressional'
p2924
aS'Saudi Arabia'
p2925
aS'group'
p2926
aS'Transportation Department'
p2927
aS'Budget Director'
p2928
aS'guaranteed'
p2929
aS'Serious Fraud Office'
p2930
aS'justices'
p2931
aS'treasury'
p2932
aS'South Australian Government'
p2933
aS'The Pentagon'
p2934
aS'congressional'
p2935
aS'legislators'
p2936
aS'municipal'
p2937
aS'government'
p2938
aS'Commons'
p2939
aS'Air'
p2940
aS'Fifth Circuit'
p2941
aS'Coast Guard'
p2942
aS'U.N.'
p2943
aS'governments'
p2944
aS'Senators'
p2945
aS'The Soviets'
p2946
aS'committees'
p2947
aS'Commerce Department'
p2948
aS'Capitol Hill'
p2949
aS'Air Force'
p2950
aS'Defense'
p2951
aS'Education'
p2952
aS'Pentagon'
p2953
aS'Swedish'
p2954
aS'federal court'
p2955
aS'force'
p2956
aS'Representatives'
p2957
aS'seat'
p2958
aS'Commission'
p2959
aS'State'
p2960
aS'Minneapolis police'
p2961
aS'Treasury'
p2962
aS'navy'
p2963
aS'HUD'
p2964
aS'District Judge'
p2965
aS'federal'
p2966
aS'air force'
p2967
aS'representatives'
p2968
aS'federal government'
p2969
aS'Treasury Secretary'
p2970
aS'unit'
p2971
aS'The government'
p2972
aS'Commerce'
p2973
aS'U.S.'
p2974
aS'Indonesia'
p2975
aS'The British'
p2976
aS'United States'
p2977
aS'Sweden'
p2978
aS'French government'
p2979
aS'British unit'
p2980
aS'Senator'
p2981
aS'congressional representatives'
p2982
aS'protect'
p2983
aS'Afrika Korps'
p2984
aS'Energy'
p2985
aS'federal agencies'
p2986
aS'Delaware Chancery Court'
p2987
aS'MP'
p2988
aS'federal funding'
p2989
aS'Navy'
p2990
aS'congressman'
p2991
aS'federal judge'
p2992
aS'Federal Deposit Insurance Corp'
p2993
aS'Group'
p2994
aS'Palestinian'
p2995
aS'Justice'
p2996
aS'Royal'
p2997
aS'U.S. government'
p2998
aS'Joint Chiefs'
p2999
aS'Small Business Administration'
p3000
aS'legislator'
p3001
aS'Transportation'
p3002
aS'Congress'
p3003
aS'army'
p3004
aS'State government'
p3005
aS'Marine Corps'
p3006
aS'SEC'
p3007
aS'legislature'
p3008
aS'The Supreme Court'
p3009
aS'American'
p3010
aS'federal appeals court'
p3011
aS'federal funds'
p3012
aS'Secretary'
p3013
aS'bankruptcy court'
p3014
aS'Defense Department'
p3015
aS'House'
p3016
aS'Metropolitan Police'
p3017
aS'Australian government'
p3018
aS'United Nation'
p3019
aS'Treasury Department'
p3020
aS'Court'
p3021
aS'congressional districts'
p3022
aS'Federal'
p3023
aS'Australian'
p3024
aS'United Nations'
p3025
aS'confirmed'
p3026
aS'Parliament'
p3027
aS'Federal Deposit Insurance Corporation'
p3028
aS'NSC'
p3029
aS'senatorial'
p3030
aS'forces'
p3031
aS'nationally'
p3032
aS'Central Intelligence Agency'
p3033
aS'chiefs'
p3034
aS'The State Department'
p3035
aS'HHS'
p3036
aS'security service'
p3037
aS'Senate'
p3038
aS'budget director'
p3039
aS'United Kingdom'
p3040
aS'Justice Department'
p3041
aS'federal agency'
p3042
asS'ORGANIZATION:CORPORATION'
p3043
(lp3044
S'Edison'
p3045
aS'British Diabetic Association'
p3046
aS'Continental'
p3047
aS'American Brands Inc.'
p3048
aS'Federal Emergency Management Agency'
p3049
aS'Dodge'
p3050
aS'Brown'
p3051
aS'Scandinavian Airlines System'
p3052
aS'Columbia'
p3053
aS'Dillon Read'
p3054
aS'Hitachi Ltd.'
p3055
aS'Salomon Brothers'
p3056
aS'Kellogg'
p3057
aS'Grumman'
p3058
aS'TVA'
p3059
aS'Cray Computer'
p3060
aS'Chemical Banking'
p3061
aS'Goldman Sachs group'
p3062
aS'Turner Broadcasting'
p3063
aS'Hargrave'
p3064
aS'GE'
p3065
aS'Lorillard'
p3066
aS'GM'
p3067
aS'General Motors'
p3068
aS'Global'
p3069
aS'SIA'
p3070
aS'Nasdaq'
p3071
aS'Defense'
p3072
aS'MasterCard'
p3073
aS'McCaw Cellular Communications'
p3074
aS'Fidelity'
p3075
aS'American association'
p3076
aS'Lorillard Inc.'
p3077
aS'Hondas'
p3078
aS'Joann'
p3079
aS'British Petroleum'
p3080
aS'State'
p3081
aS'Burlington'
p3082
aS'3M'
p3083
aS'Kleinwort Benson'
p3084
aS'Maryland'
p3085
aS'McClatchy'
p3086
aS'Look'
p3087
aS'Diamandis Communications'
p3088
aS'Finmeccanica'
p3089
aS'Omnicare'
p3090
aS'Ford'
p3091
aS'Mazda'
p3092
aS'United Biscuits'
p3093
aS'Toronto-Dominion'
p3094
aS'Agfa'
p3095
aS'Revco'
p3096
aS'Md'
p3097
aS'American Stock Exchange'
p3098
aS'NFL'
p3099
aS'National Football League'
p3100
aS'Internationale'
p3101
aS'Sansui Electric'
p3102
aS'My'
p3103
aS'Atlantic Richfield'
p3104
aS'Associated'
p3105
aS'Lotus'
p3106
aS'Montreal Exchange'
p3107
aS'Conn'
p3108
aS'Victor'
p3109
aS'Aeroflot'
p3110
aS'Dreyfus Fund'
p3111
aS'Pennzoil'
p3112
aS'Appalachian Power'
p3113
aS'Allianz AG'
p3114
aS'Hewlett-Packard'
p3115
aS'Beecham'
p3116
aS'Montedison'
p3117
aS'BSN'
p3118
aS'Visa'
p3119
aS'PaineWebber'
p3120
aS'commissioner'
p3121
aS'Boeing'
p3122
aS'LTV'
p3123
aS'Sotheby'
p3124
aS'American Brands'
p3125
aS'Knight-Ridder Inc.'
p3126
aS'Kodak'
p3127
aS'Penn Central'
p3128
aS'DILLARD DEPARTMENT STORES'
p3129
aS'Scania'
p3130
aS'Naval Institute'
p3131
aS'Seagate Technology'
p3132
aS'Newsweek'
p3133
aS'Shugart'
p3134
aS'Occidental Petroleum'
p3135
aS'IBM'
p3136
aS'newsweekly'
p3137
aS'The plant'
p3138
aS'General Electric'
p3139
aS'Washington Post'
p3140
aS'Party'
p3141
aS'educational'
p3142
aS'BellSouth'
p3143
aS'Dataproducts'
p3144
aS'Macmillan group'
p3145
aS'Environmental Defense Fund'
p3146
aS'Toronto-Dominion Bank'
p3147
aS'International Paper'
p3148
aS'Nissho Iwai'
p3149
aS'European Investment Bank'
p3150
aS'Connolly'
p3151
aS'Nebraska'
p3152
aS'Paris'
p3153
aS'Yale'
p3154
aS'Apple Macintosh'
p3155
aS'response'
p3156
aS'World Resources Institute'
p3157
aS'CRAY'
p3158
aS'American Electric Power'
p3159
aS'PNC'
p3160
aS'Northeast Utilities'
p3161
aS'What'
p3162
aS'Saab-Scania AB'
p3163
aS'RJR Nabisco'
p3164
aS'Phillips'
p3165
aS'Morgan Guaranty Trust'
p3166
aS'Banque Nationale de Paris'
p3167
aS'Edelman'
p3168
aS'MIT'
p3169
aS'Golden West Financial'
p3170
aS'IRS records'
p3171
aS'Big Blue'
p3172
aS'United Press International'
p3173
aS'Nationwide Anglia Building Society'
p3174
aS'Harris'
p3175
aS'Moody'
p3176
aS'Drexel Burnham Lambert'
p3177
aS'Che Guevara'
p3178
aS'Charles Shaw'
p3179
aS'Eastern Airlines'
p3180
aS'General Electric Capital'
p3181
aS'Caa'
p3182
aS'Specialized'
p3183
aS'Saunders'
p3184
aS'Four'
p3185
aS'Marist College'
p3186
aS'Council'
p3187
aS'Gutenberghus'
p3188
aS'International Business Machines'
p3189
aS'National Council'
p3190
aS'navy'
p3191
aS'Digital Equipment'
p3192
aS'Ohio State University'
p3193
aS'Unisys'
p3194
aS'credit ratings'
p3195
aS'network'
p3196
aS'RTC'
p3197
aS'Chevron Corp.'
p3198
aS'air force'
p3199
aS'Icahn'
p3200
aS'announced'
p3201
aS'Bloomingdale'
p3202
aS'Sports Illustrated'
p3203
aS'SHV'
p3204
aS'Westpac'
p3205
aS'Banque Paribas'
p3206
aS'Amoco Canada'
p3207
aS'N.Y.'
p3208
aS'Hewlett-Packard Co.'
p3209
aS'Atlantic Richfield Co.'
p3210
aS'McCaw Cellular'
p3211
aS'Lawson'
p3212
aS'MGM'
p3213
aS'Telxon'
p3214
aS'International Business Machines Corp.'
p3215
aS'The State Department'
p3216
aS'Refco'
p3217
aS'Time Warner Inc.'
p3218
aS'Mannesmann AG'
p3219
aS'Jackson'
p3220
aS'ASA'
p3221
aS'Disneyland'
p3222
aS'Hanson'
p3223
aS'General Dynamics'
p3224
aS'dethroned'
p3225
aS'Placer Dome'
p3226
aS'Whirlpool Corp.'
p3227
aS'Oracle'
p3228
aS'Philip Morris'
p3229
aS'Control Data'
p3230
aS'Seven'
p3231
aS'Defense Department'
p3232
aS'Whirpool'
p3233
aS'Goldman Sachs'
p3234
aS'Sears'
p3235
aS'New York'
p3236
aS'Hurst'
p3237
aS'Heritage Foundation'
p3238
aS'American Diabetes Association'
p3239
aS'Cray'
p3240
aS'Douglas'
p3241
aS'Odeon'
p3242
aS'horsepower'
p3243
aS'Independent'
p3244
aS'Goldman'
p3245
aS'Fluor'
p3246
aS'Walmart'
p3247
aS'Provident'
p3248
aS'Thomson-CSF'
p3249
aS'Inner City Broadcasting'
p3250
aS'Salomon Brothers Inc.'
p3251
aS'Cornell University'
p3252
aS'First Boston Corp.'
p3253
aS'Vanguard'
p3254
aS'Ferranti'
p3255
aS'The'
p3256
aS'NEC Corp.'
p3257
aS'Elf Aquitaine'
p3258
aS'Agip'
p3259
aS'Contel'
p3260
aS'Beverly Hills'
p3261
aS'Burmah Oil'
p3262
aS'MCA'
p3263
aS'KPMG Peat Marwick'
p3264
aS'Cray Research'
p3265
aS'American weekly'
p3266
aS'Prudential Insurance'
p3267
aS'McDonnell Douglas'
p3268
aS'Release 1.0'
p3269
aS'Reuters'
p3270
aS'Deloitte'
p3271
aS'Lilly'
p3272
aS'Ilford'
p3273
aS'Nationwide'
p3274
aS'Wells Fargo'
p3275
aS'Caterpillar'
p3276
aS'Swedish Match'
p3277
aS'Fiat'
p3278
aS'Italiana'
p3279
aS'Urban Land Institute'
p3280
aS'McClatchy Newspapers'
p3281
aS'First Union'
p3282
aS'C-SPAN'
p3283
aS'Nixdorf Computer AG'
p3284
aS'PerkinElmer'
p3285
aS'Prudential-Bache Securities'
p3286
aS'Matra'
p3287
aS'Octel Communications'
p3288
aS'investigate'
p3289
aS'Qintex'
p3290
aS'Monogram'
p3291
aS'home-building'
p3292
aS'Merkur'
p3293
aS'ITT Corp.'
p3294
aS'Fox'
p3295
aS'computer'
p3296
aS'enhanced'
p3297
aS'tuxedos'
p3298
aS'Bailey Controls'
p3299
aS'The Odeon'
p3300
aS'New York City'
p3301
aS'Broken Hill'
p3302
aS'Vanguard Group'
p3303
aS'Harvard'
p3304
aS'Mitsubishi'
p3305
aS'Commerzbank'
p3306
aS'Henry Ford'
p3307
aS'Banco Ambrosiano'
p3308
aS'Pinnacle'
p3309
aS'go-ahead'
p3310
aS'Walt Disney Co.'
p3311
aS'Freddie Mac'
p3312
aS'suggested'
p3313
aS'Northrop'
p3314
aS'Morgan Grenfell'
p3315
aS'Lotus Development Corp.'
p3316
aS'CS First Boston'
p3317
aS'Dreyfus'
p3318
aS'Eli Lilly'
p3319
aS'Navy'
p3320
aS'Freeport-McMoRan'
p3321
aS'Western Union'
p3322
aS'Initial'
p3323
aS'Sachs'
p3324
aS'Amoco'
p3325
aS'Lotus Development'
p3326
aS'Los'
p3327
aS'endeavor'
p3328
aS'Capital Group'
p3329
aS'Disney'
p3330
aS'Calor Group'
p3331
aS'Atlanta Journal'
p3332
aS'Marine Corps'
p3333
aS'Eastman Kodak Co.'
p3334
aS'Kyodo news'
p3335
aS'wobbly'
p3336
aS'London Times'
p3337
aS'Columbia University'
p3338
aS'Exxon'
p3339
aS'Tokyo'
p3340
aS'Dow Jones'
p3341
aS'Reebok International'
p3342
aS'The Wall Street Journal'
p3343
aS'City'
p3344
aS'WSJ'
p3345
aS'Fletcher Challenge'
p3346
aS'ARCO'
p3347
aS'The NFL Players Association'
p3348
aS'Dean Witter'
p3349
aS'Epson'
p3350
aS'Intel'
p3351
aS'Seagate'
p3352
aS'Touche Ross'
p3353
aS'Deutsche Bank'
p3354
aS'United Nations'
p3355
aS'Suez'
p3356
aS'independent'
p3357
aS'About'
p3358
aS'Allianz'
p3359
aS'Alliant'
p3360
aS'SHV Holdings'
p3361
aS'Raytheon'
p3362
aS'Control Data Corp.'
p3363
aS'Mellon Bank'
p3364
aS'Ford Motor Co'
p3365
aS'RJR'
p3366
aS'Sheraton'
p3367
aS'Kidder Peabody'
p3368
aS'Omnicare Inc.'
p3369
aS'Royal Bank'
p3370
aS'Total'
p3371
aS'Mobil'
p3372
aS'daily news'
p3373
aS'White House'
p3374
aS'Rand McNally'
p3375
aS'United'
p3376
aS'Lincoln Savings'
p3377
aS'BT'
p3378
aS'Washington State University'
p3379
aS'Comcast'
p3380
aS'Archer-Daniels-Midland'
p3381
aS'mortgage brokers'
p3382
aS'Pan Am'
p3383
aS'Shearson Lehman Hutton'
p3384
aS'Bear Stearns'
p3385
aS'American Express'
p3386
aS'News'
p3387
aS'The Pentagon'
p3388
aS'Esso'
p3389
aS'Givaudan'
p3390
aS'Hanson PLC'
p3391
aS'big'
p3392
aS'radio contact'
p3393
aS'Calor'
p3394
aS'Chrysler'
p3395
aS'production units'
p3396
aS'Great Western'
p3397
aS'U.N.'
p3398
aS'MCA Inc.'
p3399
aS'Merrill Lynch'
p3400
aS'Boston University'
p3401
aS'Air Force'
p3402
aS'First Tennessee Bank'
p3403
aS'San Diego Yacht Club'
p3404
aS'Compaq Computer'
p3405
aS'wire service'
p3406
aS'Bell Atlantic'
p3407
aS'Saab-Scania'
p3408
aS'Burmah'
p3409
aS'Bayer AG'
p3410
aS'Texaco'
p3411
aS'PR Newswire'
p3412
aS'Two guys'
p3413
aS'Much'
p3414
aS'Perkin-Elmer'
p3415
aS'recommendation'
p3416
aS'International'
p3417
aS'Life'
p3418
aS'Nixdorf'
p3419
aS'Federal Home Loan Bank'
p3420
aS'Hiram'
p3421
aS'National Bureau'
p3422
aS'Morgan Stanley'
p3423
aS'News Corp'
p3424
aS'Pacific Bell'
p3425
aS'Time magazine'
p3426
aS'Times'
p3427
aS'Fujitsu'
p3428
aS'Georgia-Pacific'
p3429
aS'Fluor Corp.'
p3430
aS'Microsoft'
p3431
aS'Union Bank'
p3432
aS'Pentagon'
p3433
aS'Seagram'
p3434
aS'Metro Bank'
p3435
aS'airline'
p3436
aS'Chevron'
p3437
aS'Tennessee Valley Authority'
p3438
aS'Really'
p3439
aS'outlook'
p3440
aS'Dean Witter Reynolds'
p3441
aS'NEC'
p3442
aS'Catholic Healthcare West'
p3443
aS'Deere'
p3444
aS'Credit Suisse'
p3445
aS'Quebecor'
p3446
aS'Commonwealth Edison'
p3447
aS'Westdeutsche Landesbank Girozentrale'
p3448
aS'North Point Press'
p3449
aS'area'
p3450
aS'Citicorp'
p3451
aS'Castrol'
p3452
aS'Koch'
p3453
aS'HOT TOPIC'
p3454
aS'Pan American World Airways'
p3455
aS'The Times'
p3456
aS'First Boston'
p3457
aS'Ekco'
p3458
aS'Vermont College'
p3459
aS'Eddie Bauer'
p3460
aS'Southern Methodist'
p3461
aS'Merrill Lynch Capital Markets'
p3462
aS'Dresdner Bank'
p3463
aS'Intel Corp.'
p3464
aS'Commodity Exchange'
p3465
aS'Lancia'
p3466
aS'Grand Metropolitan PLC'
p3467
aS'Mack'
p3468
aS'Esther Dyson'
p3469
aS'United Nation'
p3470
aS'Anglia'
p3471
aS'Personal'
p3472
aS'Westin'
p3473
aS'fellow'
p3474
aS'Avis'
p3475
aS'New York Times'
p3476
aS'FEMA'
p3477
aS'Hambros Bank'
p3478
aS'USX'
p3479
aS'Knight-Ridder'
p3480
aS'Barilla Group'
p3481
aS'First Boston Corp'
p3482
aS'Princeton'
p3483
aS'Fuji'
p3484
aS'Five'
p3485
aS'Ohio State'
p3486
aS'Harvard University'
p3487
aS'Jaguar'
p3488
aS'Pacific Telesis Group'
p3489
aS'television network'
p3490
aS'GE Capital'
p3491
aS'Mary Kay'
p3492
aS'CNN'
p3493
aS'HHS'
p3494
aS'Xinhua News Agency'
p3495
aS'Beneficial'
p3496
aS'midcontinent'
p3497
aS'Thus'
p3498
aS'United Illuminating'
p3499
aS'Fidelity Investments'
p3500
asS'FACILITY:ATTRACTION'
p3501
(lp3502
S'White House'
p3503
aS'Ellis'
p3504
aS'DPC'
p3505
aS'City Hall'
p3506
aS'Red Square'
p3507
aS'Bass Strait'
p3508
aS'Golden Gate Park'
p3509
aS'Leaning Tower'
p3510
aS'opened'
p3511
aS'Eiffel Tower'
p3512
aS'Falls'
p3513
aS'great pyramids'
p3514
aS'Disneyland'
p3515
aS'falls'
p3516
aS'Asian Art Museum'
p3517
aS'Fogg'
p3518
aS'Vatican'
p3519
aS'Times Square'
p3520
aS'Murray'
p3521
aS'uncovered'
p3522
aS'chamber'
p3523
aS'shore'
p3524
asS'PERSON'
p3525
(lp3526
S'Pryor'
p3527
aS'Edison'
p3528
aS'coach'
p3529
aS'managed'
p3530
aS'Mortimer'
p3531
aS'manager'
p3532
aS'delays'
p3533
aS'Kaplan'
p3534
aS'Certificates'
p3535
aS'Eurostat'
p3536
aS'undersecretary'
p3537
aS'Hitachi Ltd.'
p3538
aS'acting'
p3539
aS'Platt'
p3540
aS'Supervisors'
p3541
aS'program'
p3542
aS'Brent Scowcroft'
p3543
aS'lawmakers'
p3544
aS'veterans'
p3545
aS'merchant bank'
p3546
aS'adviser'
p3547
aS'legislators'
p3548
aS'Inouye'
p3549
aS'marketing executives'
p3550
aS'Ollie'
p3551
aS'Treasury secretary'
p3552
aS'Laurie'
p3553
aS'Coast Guard'
p3554
aS'difference'
p3555
aS'Cockburn'
p3556
aS'Ambassador'
p3557
aS'Thomas'
p3558
aS'Investors'
p3559
aS'Maurice'
p3560
aS'supports'
p3561
aS'Economy Minister'
p3562
aS'Bush administration'
p3563
aS'American Diabetes Association'
p3564
aS'Nasdaq'
p3565
aS'political contributions'
p3566
aS'financial services'
p3567
aS'Soldiers'
p3568
aS'Paul'
p3569
aS'heading'
p3570
aS'self-employment'
p3571
aS'attracting'
p3572
aS'hinder'
p3573
aS'force'
p3574
aS'fence'
p3575
aS'streets'
p3576
aS'Soichiro Honda'
p3577
aS'Georg'
p3578
aS'jump'
p3579
aS'Eddy'
p3580
aS'securities firms'
p3581
aS'lawyer'
p3582
aS'Margaret Thatcher'
p3583
aS'investment'
p3584
aS'senior vice president'
p3585
aS'production unit'
p3586
aS'Fireman'
p3587
aS'Dubbed'
p3588
aS'John Burgee'
p3589
aS'associate'
p3590
aS'brink'
p3591
aS'Elizabeth Taylor'
p3592
aS'waiting'
p3593
aS'Florence Griffith-Joyner'
p3594
aS'gubernatorial'
p3595
aS'scientists'
p3596
aS'Agfa'
p3597
aS'Swift'
p3598
aS'Jonathan Demme'
p3599
aS'Roberto Calvi'
p3600
aS'Haile Selassie'
p3601
aS'senior partner'
p3602
aS'NFL'
p3603
aS'National Football League'
p3604
aS'publishes'
p3605
aS'Michael Graves'
p3606
aS'mayoral'
p3607
aS'Prior'
p3608
aS'inner-city'
p3609
aS'Mr'
p3610
aS'directions'
p3611
aS'Darin'
p3612
aS'managerial'
p3613
aS'My'
p3614
aS'Bob Clarke'
p3615
aS'The association'
p3616
aS'congressional representatives'
p3617
aS'publisher'
p3618
aS'industry analyst'
p3619
aS'comptroller'
p3620
aS'Pfeiffer'
p3621
aS'Sobel'
p3622
aS'Lotus'
p3623
aS'Dole'
p3624
aS'James Wright'
p3625
aS'prior'
p3626
aS'High School'
p3627
aS'survey'
p3628
aS'analysts'
p3629
aS'Joanne'
p3630
aS'streamline'
p3631
aS'Estate Agents'
p3632
aS'Technology'
p3633
aS'maker'
p3634
aS'composed'
p3635
aS'Blake'
p3636
aS'shorthand'
p3637
aS'extra'
p3638
aS'Rupert Murdoch'
p3639
aS'Harvey'
p3640
aS'Clarke'
p3641
aS'manage'
p3642
aS'media consultant'
p3643
aS'Robert Byrd'
p3644
aS'young'
p3645
aS'Investment Bank'
p3646
aS'Senator'
p3647
aS'Lawmakers'
p3648
aS'Frawley'
p3649
aS'Dinkins'
p3650
aS'Corresponding'
p3651
aS'Hewlett-Packard'
p3652
aS'Partnership'
p3653
aS'June'
p3654
aS'financial adviser'
p3655
aS'building codes'
p3656
aS'Arlen Specter'
p3657
aS'head coach'
p3658
aS'NATO'
p3659
aS'corporate counsel'
p3660
aS'school administrators'
p3661
aS'Australian Treasury'
p3662
aS'prosecutor'
p3663
aS'McClatchy'
p3664
aS'Lang'
p3665
aS'commissioner'
p3666
aS'McDonough'
p3667
aS'prosecutors'
p3668
aS'Kennedy'
p3669
aS'These'
p3670
aS'Cheney'
p3671
aS'Kodak'
p3672
aS'Chief Justice Warren Burger'
p3673
aS'So'
p3674
aS'Byron'
p3675
aS'Defense Department'
p3676
aS'Guy'
p3677
aS'Ted Turner'
p3678
aS'producing'
p3679
aS'Clarence Thomas'
p3680
aS'manages'
p3681
aS'Financial'
p3682
aS'announcing'
p3683
aS'Owen'
p3684
aS'chief economist'
p3685
aS'Exchequer'
p3686
aS'facilitating'
p3687
aS'commercial printer'
p3688
aS'Goldwater'
p3689
aS'Jimmy Johnson'
p3690
aS'Kimmel'
p3691
aS'President Ford'
p3692
aS'Troy Aikman'
p3693
aS'movie producers'
p3694
aS'Tomorrow'
p3695
aS'financial planner'
p3696
aS'Maynard'
p3697
aS'Buyers'
p3698
aS'performer'
p3699
aS'IBM'
p3700
aS'Brouwer'
p3701
aS'Federal'
p3702
aS'Robert Mosbacher'
p3703
aS'Michael Ballhaus'
p3704
aS'high'
p3705
aS'Dodson'
p3706
aS'Speaker'
p3707
aS'Edmund'
p3708
aS'Miguel'
p3709
aS'chic'
p3710
aS'Australian'
p3711
aS'provoke'
p3712
aS'marketing services'
p3713
aS'financial economist'
p3714
aS'The heavy'
p3715
aS'Who'
p3716
aS'Macmillan group'
p3717
aS'Carpenter'
p3718
aS'real estate developer'
p3719
aS'write'
p3720
aS'free-lance writer'
p3721
aS'chief executive'
p3722
aS'EEOC'
p3723
aS'Jack'
p3724
aS'Louis'
p3725
aS'III'
p3726
aS'law offices'
p3727
aS'President Nixon'
p3728
aS'critics'
p3729
aS'translations'
p3730
aS'Joel'
p3731
aS'investment banker'
p3732
aS'European Investment Bank'
p3733
aS'Castro'
p3734
aS'Epps'
p3735
aS'Garcia'
p3736
aS'Lawson'
p3737
aS'produce'
p3738
aS'Minnesota Vikings'
p3739
aS'The Members'
p3740
aS'Kelly'
p3741
aS'Apple Macintosh'
p3742
aS'guys'
p3743
aS'Peter Laird'
p3744
aS'Carlos'
p3745
aS'man'
p3746
aS'Stevens'
p3747
aS'Maxwell'
p3748
aS'Mayer'
p3749
aS'chief'
p3750
aS'Lloyd'
p3751
aS'World Resources Institute'
p3752
aS'intellectuals'
p3753
aS'playing'
p3754
aS'talk'
p3755
aS'senators'
p3756
aS'Wilson'
p3757
aS'serving'
p3758
aS'producer'
p3759
aS'Gabriele'
p3760
aS'developed'
p3761
aS'paintings'
p3762
aS'shaky'
p3763
aS'Smith'
p3764
aS'San Francisco Mayor'
p3765
aS'produced'
p3766
aS'Laurence'
p3767
aS'scientist'
p3768
aS'league commissioner'
p3769
aS'directs'
p3770
aS'statistical'
p3771
aS'cuts'
p3772
aS'Jamie Whitten'
p3773
aS'White'
p3774
aS'Wham'
p3775
aS'MIT'
p3776
aS'developer'
p3777
aS'His'
p3778
aS'Big Blue'
p3779
aS'personal'
p3780
aS'sale'
p3781
aS'Carnegie'
p3782
aS'Cabinet'
p3783
aS'Director'
p3784
aS'Weitz'
p3785
aS'permanent'
p3786
aS'Doyle'
p3787
aS'Thomas Foley'
p3788
aS'Bette Midler'
p3789
aS'Judge'
p3790
aS'New Hampshire'
p3791
aS'Him'
p3792
aS'Moody'
p3793
aS'fool'
p3794
aS'Che Guevara'
p3795
aS'Royal'
p3796
aS'Michael'
p3797
aS'NIH'
p3798
aS'Duane'
p3799
aS'Young'
p3800
aS'Ernst'
p3801
aS'Robert Gates'
p3802
aS'skipper'
p3803
aS'Kemp'
p3804
aS'Caa'
p3805
aS'Bam'
p3806
aS'handy'
p3807
aS'developments'
p3808
aS'enacted'
p3809
aS'masters'
p3810
aS'attorneys'
p3811
aS'mathematician'
p3812
aS'undertaking'
p3813
aS'Internal Revenue Service'
p3814
aS'presented'
p3815
aS'securities analysts'
p3816
aS'Four'
p3817
aS'Bancroft'
p3818
aS'Treasury Secretary'
p3819
aS'affiliate'
p3820
aS'Council'
p3821
aS'Benda'
p3822
aS'publishing company'
p3823
aS'Stanley'
p3824
aS'Drew'
p3825
aS'Specter'
p3826
aS'Garnett'
p3827
aS'investigators'
p3828
aS'financial'
p3829
aS'International Business Machines'
p3830
aS'Pat Sajak'
p3831
aS'house'
p3832
aS'incumbency'
p3833
aS'Within'
p3834
aS'U.S. attorney'
p3835
aS'Butcher'
p3836
aS'aide'
p3837
aS'Anyone'
p3838
aS'trial lawyers'
p3839
aS'Joseph'
p3840
aS'Derek'
p3841
aS'Peru'
p3842
aS'Garth'
p3843
aS'navy'
p3844
aS'Digital Equipment'
p3845
aS'More'
p3846
aS'credit ratings'
p3847
aS'Lawyers'
p3848
aS'Everett'
p3849
aS'Vic Fazio'
p3850
aS'Bobby Darin'
p3851
aS'publish'
p3852
aS'fellows'
p3853
aS'William'
p3854
aS'Technical'
p3855
aS'federal government'
p3856
aS'Defense'
p3857
aS'industry analysts'
p3858
aS'backup singer'
p3859
aS'illustrate'
p3860
aS'appraisers'
p3861
aS'announced'
p3862
aS'Deane'
p3863
aS'colleges'
p3864
aS'Sports Illustrated'
p3865
aS'Dodd'
p3866
aS'This'
p3867
aS'chief operating officer'
p3868
aS'United States'
p3869
aS'President Carter'
p3870
aS'French government'
p3871
aS'members'
p3872
aS'Hewlett-Packard Co.'
p3873
aS'chief accountant'
p3874
aS'Agnew'
p3875
aS'securities firm'
p3876
aS'Nixon'
p3877
aS'Already'
p3878
aS'allies'
p3879
aS'Congress'
p3880
aS'Evans'
p3881
aS'created'
p3882
aS'waits'
p3883
aS'federal agencies'
p3884
aS'running'
p3885
aS'MGM'
p3886
aS'defense secretary'
p3887
aS'Ernest Hollings'
p3888
aS'Adlai Stevenson'
p3889
aS'nationally'
p3890
aS'Dick Cheney'
p3891
aS'Businessmen'
p3892
aS'Bridges'
p3893
aS'major'
p3894
aS'Rainer Fassbinder'
p3895
aS'deputy mayor'
p3896
aS'Ortiz'
p3897
aS'Landry'
p3898
aS'Administration'
p3899
aS'primary'
p3900
aS'owned'
p3901
aS'U.S. government'
p3902
aS'president'
p3903
aS'Medicine'
p3904
aS'sounds'
p3905
aS'John Major'
p3906
aS'engineer'
p3907
aS'management'
p3908
aS'law firm'
p3909
aS'service'
p3910
aS'J.P.'
p3911
aS'David Dinkins'
p3912
aS'Chevy Chase'
p3913
aS'free-lance'
p3914
aS'Altman'
p3915
aS'Chief Executive'
p3916
aS'master'
p3917
aS'high-technology'
p3918
aS'scheme'
p3919
aS'William McDonough'
p3920
aS'campaign manager'
p3921
aS'Robert I'
p3922
aS'Robert Bass'
p3923
aS'David Pryor'
p3924
aS'treasurer'
p3925
aS'President Reagan'
p3926
aS'authors'
p3927
aS'Oracle'
p3928
aS'translation'
p3929
aS'investment adviser'
p3930
aS'representing'
p3931
aS'Bruner'
p3932
aS'Carney'
p3933
aS'Lamar Hunt'
p3934
aS'performers'
p3935
aS'co-production'
p3936
aS'commandant'
p3937
aS'general manager'
p3938
aS'Sears'
p3939
aS'officials'
p3940
aS'David Hockney'
p3941
aS'Browder'
p3942
aS'Maloney'
p3943
aS'published'
p3944
aS'Peter Lang'
p3945
aS'Heritage Foundation'
p3946
aS'Richard'
p3947
aS'God'
p3948
aS'Frank Gaffney'
p3949
aS'Prime Minister'
p3950
aS'arms control'
p3951
aS'Call'
p3952
aS'Rudolph Giuliani'
p3953
aS'horsepower'
p3954
aS'Albert Lee'
p3955
aS'chief financial officer'
p3956
aS'ponder'
p3957
aS'Patterson'
p3958
aS'Fukuyama'
p3959
aS'Fiorello LaGuardia'
p3960
aS'veteran'
p3961
aS'officers'
p3962
aS'Scientists'
p3963
aS'majority'
p3964
aS'chairman'
p3965
aS'Kiss'
p3966
aS'Sandler'
p3967
aS'projects'
p3968
aS'Hall'
p3969
aS'quarterback'
p3970
aS'Prince George'
p3971
aS'Jones'
p3972
aS'urge'
p3973
aS'House Speaker'
p3974
aS'printer'
p3975
aS'Jennifer Tilly'
p3976
aS'The business'
p3977
aS'Cornell University'
p3978
aS'Frederick'
p3979
aS'kidnapping'
p3980
aS'accountants'
p3981
aS'Sigmund'
p3982
aS'standard-bearer'
p3983
aS'commanding'
p3984
aS'freshman'
p3985
aS'librarian'
p3986
aS'The'
p3987
aS'Paul Allen'
p3988
aS'NEC Corp.'
p3989
aS'George Halas'
p3990
aS'Larry King'
p3991
aS'Attorney'
p3992
aS'Richard Ravitch'
p3993
aS'Martin Scorsese'
p3994
aS'Forrest'
p3995
aS'medical'
p3996
aS'Johns'
p3997
aS'vice chairman'
p3998
aS'independent contractor'
p3999
aS'traditional'
p4000
aS'managing'
p4001
aS'Donald'
p4002
aS'bartenders'
p4003
aS'cabinet members'
p4004
aS'businessman'
p4005
aS'senior'
p4006
aS'painting'
p4007
aS'technical'
p4008
aS'Zuckerman'
p4009
aS'Ahmad Jibril'
p4010
aS'Lillo'
p4011
aS'John Connolly'
p4012
aS'Release 1.0'
p4013
aS'Reuters'
p4014
aS'Hill'
p4015
aS'Mengistu'
p4016
aS'Stephen'
p4017
aS'soldiers'
p4018
aS'Kurt'
p4019
aS'Congressional'
p4020
aS'Herschel Walker'
p4021
aS'Publishers'
p4022
aS'judges'
p4023
aS'marketing executive'
p4024
aS'King Solomon'
p4025
aS'office'
p4026
aS'writes'
p4027
aS'writer'
p4028
aS'Thomas Jefferson'
p4029
aS'Caterpillar'
p4030
aS'George Gray'
p4031
aS'surveyed'
p4032
aS'South Australian Government'
p4033
aS'Giuliani'
p4034
aS'mayors'
p4035
aS'congressional'
p4036
aS'muni'
p4037
aS'writing'
p4038
aS'assistant'
p4039
aS'McClatchy Newspapers'
p4040
aS'truck drivers'
p4041
aS'reporters'
p4042
aS'marketing manager'
p4043
aS'C-SPAN'
p4044
aS'Corona'
p4045
aS'secondary'
p4046
aS'Senators'
p4047
aS'runs'
p4048
aS'artist'
p4049
aS'Sullivan'
p4050
aS'Richard Cheney'
p4051
aS'doubled'
p4052
aS'Peres'
p4053
aS'miles'
p4054
aS'Experts'
p4055
aS'James Sasser'
p4056
aS'FDA'
p4057
aS'Partners'
p4058
aS'Francis Fukuyama'
p4059
aS'Levine'
p4060
aS'The move'
p4061
aS'Fox'
p4062
aS'Carter administration'
p4063
aS'Soon'
p4064
aS'Traders'
p4065
aS'Rendell'
p4066
aS'computer'
p4067
aS'Finks'
p4068
aS'Harvard University'
p4069
aS'Butler'
p4070
aS'Pinnacle'
p4071
aS'John'
p4072
aS'Jerry Jones'
p4073
aS'Developers'
p4074
aS'General Assembly'
p4075
aS'N.H.'
p4076
aS'Jarrett'
p4077
aS'federal'
p4078
aS'The decision'
p4079
aS'freshmen'
p4080
aS'prime contractor'
p4081
aS'mayor'
p4082
aS'Harvard'
p4083
aS'Frank Lorenzo'
p4084
aS'Art Agnos'
p4085
aS'Terry'
p4086
aS'scorn'
p4087
aS'assistants'
p4088
aS'Michelle Pfeiffer'
p4089
aS'knowing'
p4090
aS'publishers'
p4091
aS'Percy Sutton'
p4092
aS'Jack Kemp'
p4093
aS'Johnson'
p4094
aS'U.S.'
p4095
aS'Jeff Bridges'
p4096
aS'Burt Sugarman'
p4097
aS'painters'
p4098
aS'British unit'
p4099
aS'Walt Disney Co.'
p4100
aS'James Patterson'
p4101
aS'sailors'
p4102
aS'Senator Bob Dole'
p4103
aS'executive director'
p4104
aS'Arafat'
p4105
aS'hits'
p4106
aS'United Nation'
p4107
aS'Stein'
p4108
aS'McDonald'
p4109
aS'Barnum'
p4110
aS'Arthur'
p4111
aS'The humans'
p4112
aS'columnist'
p4113
aS'guy'
p4114
aS'Navy'
p4115
aS'Siad Barre'
p4116
aS'Talk'
p4117
aS'Ammann'
p4118
aS'Brink'
p4119
aS'Christ'
p4120
aS'headed'
p4121
aS'Bob Dole'
p4122
aS'Appert'
p4123
aS'Initial'
p4124
aS'Sachs'
p4125
aS'Lotus Development'
p4126
aS'company directors'
p4127
aS'agents'
p4128
aS'Board'
p4129
aS'article'
p4130
aS'Officials'
p4131
aS'Shamir'
p4132
aS'Disney'
p4133
aS'George Bush'
p4134
aS'Daniel Inouye'
p4135
aS'Manhattan borough president'
p4136
aS'raise'
p4137
aS'Students'
p4138
aS'bode'
p4139
aS"O'Connor"
p4140
aS'Nancy Sinatra'
p4141
aS'American Express'
p4142
aS'Stephen Wozniak'
p4143
aS'Col.'
p4144
aS'Marine Corps'
p4145
aS'Spoon'
p4146
aS'Lynch'
p4147
aS'basic'
p4148
aS'Kid Creole'
p4149
aS'Commercial'
p4150
aS'Columbia University'
p4151
aS'business analyst'
p4152
aS'settling'
p4153
aS'Steve Walsh'
p4154
aS'Conn.'
p4155
aS'Dennis Conner'
p4156
aS'Nicholas Brady'
p4157
aS'Dow Jones'
p4158
aS'millon'
p4159
aS'HUD Secretary'
p4160
aS'fund'
p4161
aS'Defense Secretary'
p4162
aS'Steven Jobs'
p4163
aS'deep'
p4164
aS'Associated'
p4165
aS'general'
p4166
aS'Michel'
p4167
aS'Secretary'
p4168
aS'sound'
p4169
aS'James Tobin'
p4170
aS'chicanery'
p4171
aS'group chief executive'
p4172
aS'Suits'
p4173
aS'Presidents'
p4174
aS'George Miller'
p4175
aS'General'
p4176
aS'ALCEE HASTINGS'
p4177
aS'Tom Landry'
p4178
aS'owns'
p4179
aS'investigating'
p4180
aS'IT'
p4181
aS'Owning'
p4182
aS'engineers'
p4183
aS'backing'
p4184
aS'Rudolph'
p4185
aS'engaged'
p4186
aS'Oprah Winfrey'
p4187
aS'Better'
p4188
aS'Sinatra'
p4189
aS'Bush'
p4190
aS'experts'
p4191
aS'Briggs'
p4192
aS'technology'
p4193
aS'high schools'
p4194
aS'Foley'
p4195
aS'Jacqueline'
p4196
aS'Gaubert'
p4197
aS'Intel'
p4198
aS'Beau'
p4199
aS'Bureaucrat'
p4200
aS'member'
p4201
aS'mobster'
p4202
aS'Frederic'
p4203
aS'Harkin'
p4204
aS'Franklin Roosevelt'
p4205
aS'James'
p4206
aS'President'
p4207
aS'Carol'
p4208
aS'United Nations'
p4209
aS'Barry Diller'
p4210
aS'employment opportunities'
p4211
aS'development'
p4212
aS'Raymond Wong'
p4213
aS'Emperor Haile Selassie'
p4214
aS'lawyers'
p4215
aS'promoters'
p4216
aS'IRS'
p4217
aS'Rockefeller'
p4218
aS'Raytheon'
p4219
aS'director'
p4220
aS'persons'
p4221
aS'Morris'
p4222
aS'Carl Icahn'
p4223
aS'cinematographer'
p4224
aS'cleaning'
p4225
aS'Builders'
p4226
aS'IF'
p4227
aS'Gates'
p4228
aS'Attorney General'
p4229
aS'Senate'
p4230
aS'Joan'
p4231
aS'Is'
p4232
aS'Finkelstein'
p4233
aS'person'
p4234
aS'Coopers'
p4235
aS'Lotus Development Corp.'
p4236
aS'Michael Fay'
p4237
aS'Dennis'
p4238
aS'president-elect'
p4239
aS'Generale'
p4240
aS'White House'
p4241
aS'Rand McNally'
p4242
aS'United'
p4243
aS'Russell'
p4244
aS'Reagan years'
p4245
aS'William Seidman'
p4246
aS'Bureaucrats'
p4247
aS'executive'
p4248
aS'domestic'
p4249
aS'starting'
p4250
aS'Shaffer'
p4251
aS'Bernard'
p4252
aS'Chairman'
p4253
aS'Hanks'
p4254
aS'John Sununu'
p4255
aS'expert'
p4256
aS'mortgage brokers'
p4257
aS'Cowan'
p4258
aS'Australian government'
p4259
aS'group managing director'
p4260
aS'Warren Rudman'
p4261
aS'advisers'
p4262
aS'magistrates'
p4263
aS'real money'
p4264
aS'H.R'
p4265
aS'presidential'
p4266
aS'News'
p4267
aS'Philip'
p4268
aS'The Pentagon'
p4269
aS'Uhlmann'
p4270
aS'Robert'
p4271
aS'enact'
p4272
aS'Seymour Cray'
p4273
aS'government'
p4274
aS'President Bush'
p4275
aS'big'
p4276
aS'British prime minister'
p4277
aS'Drake'
p4278
aS'Limited Partnerships'
p4279
aS'Solomon'
p4280
aS'Steve Kloves'
p4281
aS'judge'
p4282
aS'U.N.'
p4283
aS'advanced'
p4284
aS'chairs'
p4285
aS'Jackie Mason'
p4286
aS'Fidel Castro'
p4287
aS'Capitol Hill'
p4288
aS'Lowry'
p4289
aS'Warren Burger'
p4290
aS'offices'
p4291
aS'journalist'
p4292
aS'British Chancellor'
p4293
aS'Steven'
p4294
aS'Compaq Computer'
p4295
aS'security'
p4296
aS'investment advisers'
p4297
aS'Pentagon'
p4298
aS'Charlene'
p4299
aS'The freeze'
p4300
aS'attorney'
p4301
aS'Management'
p4302
aS'incumbents'
p4303
aS'Fujitsu'
p4304
aS'Mayor Koch'
p4305
aS'public relations'
p4306
aS'vice president'
p4307
aS'Nigel Lawson'
p4308
aS'national security adviser'
p4309
aS'delegation'
p4310
aS'Geoffrey'
p4311
aS'recommendation'
p4312
aS'Marx'
p4313
aS'Mary'
p4314
aS'Henri Matisse'
p4315
aS'private security'
p4316
aS'Abbe'
p4317
aS'Lee'
p4318
aS'communications'
p4319
aS'Baker'
p4320
aS'Was'
p4321
aS'Rage'
p4322
aS'recorded'
p4323
aS'Whittle'
p4324
aS'general counsel'
p4325
aS'critical'
p4326
aS'bosses'
p4327
aS'Keith'
p4328
aS'Seventy'
p4329
aS'He'
p4330
aS'Morgan Stanley'
p4331
aS'wire service'
p4332
aS'marketing'
p4333
aS'chefs'
p4334
aS'Neal'
p4335
aS'Nichols'
p4336
aS'Pavel'
p4337
aS'David'
p4338
aS'Cervantes'
p4339
aS'Jeane Kirkpatrick'
p4340
aS'Graduate School'
p4341
aS'served'
p4342
aS'Microsoft'
p4343
aS'session'
p4344
aS'Commerce Secretary'
p4345
aS'entrepreneurs'
p4346
aS'Bronson'
p4347
aS'Roy'
p4348
aS'high school'
p4349
aS'airline'
p4350
aS'Soviet President'
p4351
aS'federal funding'
p4352
aS'congressman'
p4353
aS'Mayor'
p4354
aS'executives'
p4355
aS'Jim Finks'
p4356
aS'raised'
p4357
aS'Professional Photographers'
p4358
aS'managers'
p4359
aS'Assistant Secretary'
p4360
aS'NEC'
p4361
aS'Pete Rozelle'
p4362
aS'CNN'
p4363
aS'Aaron'
p4364
aS'Iran'
p4365
aS'Gregory'
p4366
aS'Empty'
p4367
aS'Mengistu Haile Mariam'
p4368
aS'International Business Machines Corp.'
p4369
aS'National Security'
p4370
aS'dispatching'
p4371
aS'Hildebrandt'
p4372
aS'Assistant'
p4373
aS'support'
p4374
aS'Marc'
p4375
aS'Eastman Kodak Co.'
p4376
aS'approved'
p4377
aS'Weinberg'
p4378
aS'Gerald'
p4379
aS'Art Modell'
p4380
aS'Roger Ailes'
p4381
aS'Bryan'
p4382
aS'head'
p4383
aS'Rachel Weiss'
p4384
aS'Thomas DiLorenzo'
p4385
aS'funds'
p4386
aS'Carlos Menem'
p4387
aS'cabinet'
p4388
aS'Intel Corp.'
p4389
aS'city clerk'
p4390
aS'technologies'
p4391
aS'federal funds'
p4392
aS'stratagems'
p4393
aS'Jeff'
p4394
aS'Toni'
p4395
aS'official'
p4396
aS'Melvin Belli'
p4397
aS'Thatcher'
p4398
aS'record'
p4399
aS'Esther Dyson'
p4400
aS'Hornaday'
p4401
aS'trading'
p4402
aS'engaging'
p4403
aS'Care'
p4404
aS'builders'
p4405
aS'professor'
p4406
aS'Anglia'
p4407
aS'possession'
p4408
aS'Farmers'
p4409
aS'Wilbur Ross'
p4410
aS'Six'
p4411
aS'Thursday'
p4412
aS'fellow'
p4413
aS'Carson'
p4414
aS'To'
p4415
aS'Midler'
p4416
aS'promised'
p4417
aS'Michael Milken'
p4418
aS'Blunt'
p4419
aS'Yuri'
p4420
aS'Adams'
p4421
aS'Marilyn Monroe'
p4422
aS'technological development'
p4423
aS'Dan Coats'
p4424
aS'Fidel'
p4425
aS'Ann Wilson'
p4426
aS'senatorial'
p4427
aS'occasional'
p4428
aS'cinematography'
p4429
aS'stripping'
p4430
aS'Five'
p4431
aS'Advisor'
p4432
aS'Arthur Ochs Sulzberger'
p4433
aS'developers'
p4434
aS'shrink'
p4435
aS'Milton'
p4436
aS'Comptroller'
p4437
aS'brothers'
p4438
aS'students'
p4439
aS'Mikhail Gorbachev'
p4440
aS'real estate developers'
p4441
aS'Edward Koch'
p4442
aS'restaurant manager'
p4443
aS'No doubt'
p4444
aS'Deere'
p4445
aS'Ginn'
p4446
aS'Dave Grusin'
p4447
aS'Stewart'
p4448
aS'HHS'
p4449
aS'Major'
p4450
aS'Constant'
p4451
aS'Robinson'
p4452
aS'Malcolm'
p4453
aS'Charles'
p4454
aS'directors'
p4455
aS'Amram'
p4456
aS'Scott'
p4457
aS'Financial Services'
p4458
aS'Oliver North'
p4459
aS'chief executive officer'
p4460
aS'Kelley'
p4461
aS'Scowcroft'
p4462
aS'federal agency'
p4463
asS'ANIMAL'
p4464
(lp4465
S'pork'
p4466
aS'Neanderthal'
p4467
aS'serpent'
p4468
aS'chicken feed'
p4469
aS'foxes'
p4470
aS'ducks'
p4471
aS'cattle'
p4472
aS'Pan'
p4473
aS'hog'
p4474
aS'horse'
p4475
aS'cockroaches'
p4476
aS'assumed'
p4477
aS'Giraffe'
p4478
aS'rodents'
p4479
aS'Crane'
p4480
aS'dogs'
p4481
aS'Kids'
p4482
aS'Chickens'
p4483
aS'Bee'
p4484
aS'lows'
p4485
aS'herds'
p4486
aS'Roebuck'
p4487
aS'buck'
p4488
aS'assume'
p4489
aS'chickens'
p4490
aS'dog'
p4491
aS'Bullock'
p4492
aS'neat'
p4493
aS'Beaver'
p4494
aS'wolves'
p4495
aS'caribou'
p4496
aS'steer'
p4497
asS'ORGANIZATION:HOSPITAL'
p4498
(lp4499
S'emergency care'
p4500
aS'Beth Israel Hospital'
p4501
asS'LAW'
p4502
(lp4503
S'scheduled'
p4504
aS'Americans With Disabilities Act'
p4505
aS'Sherman'
p4506
aS'excluding'
p4507
aS'Oil Pollution Act'
p4508
aS'annual'
p4509
aS'Federal Tort Claims Act'
p4510
aS'redress'
p4511
aS'Fourth'
p4512
aS'scheduling'
p4513
aS'Fifth'
p4514
aS'First'
p4515
asS'EVENT'
p4516
(lp4517
S'executed'
p4518
aS'presence'
p4519
aS'ended'
p4520
aS'Group'
p4521
aS'battleground'
p4522
aS'decade'
p4523
aS'bombing'
p4524
aS'Wall Street crash'
p4525
aS'Republicans'
p4526
aS'hopeful'
p4527
aS'Super Bowls'
p4528
aS'Armenian'
p4529
aS'troubled'
p4530
aS'surprised'
p4531
aS'dispute'
p4532
aS'World War I'
p4533
aS'advances'
p4534
aS'Great Depression'
p4535
aS'early'
p4536
aS'baby boomers'
p4537
aS'fall'
p4538
aS'sweeping'
p4539
aS'execution'
p4540
aS'day'
p4541
aS'Armenian Genocide'
p4542
aS'loss'
p4543
aS'execute'
p4544
aS'explore'
p4545
aS'advent'
p4546
aS'The strike'
p4547
aS'guy'
p4548
aS'Pentagon'
p4549
aS'Before'
p4550
aS'drug war'
p4551
aS'employment'
p4552
aS'Olympic gold medalist'
p4553
aS'capital'
p4554
aS'falling'
p4555
aS'Republican'
p4556
aS'911'
p4557
aS'Hurricane Jerry'
p4558
aS'seventh'
p4559
aS'national ban'
p4560
aS'presidential election'
p4561
aS'disputes'
p4562
aS'anti-Soviet'
p4563
aS'backlash'
p4564
aS'First'
p4565
aS'revolutionary'
p4566
aS'engage'
p4567
aS'Angola'
p4568
aS'met'
p4569
aS'attacks'
p4570
aS'December'
p4571
aS'Tuesday'
p4572
aS'Roe'
p4573
aS'genocide'
p4574
aS'pick'
p4575
aS'moving'
p4576
aS'death sentence'
p4577
aS'fallen'
p4578
aS'Friday'
p4579
aS'1906 earthquake'
p4580
aS'Cup'
p4581
aS'troubles'
p4582
aS'Panama'
p4583
aS'Two'
p4584
aS'executions'
p4585
aS'Black Monday'
p4586
aS'rising'
p4587
aS'total'
p4588
aS'August'
p4589
aS'breakup'
p4590
aS'market crash'
p4591
aS'rivals'
p4592
aS'attack'
p4593
aS'victorious'
p4594
aS'draft'
p4595
aS'Hurricane Hugo'
p4596
aS'final'
p4597
aS'Middle Ages'
p4598
aS'2018'
p4599
aS'October'
p4600
aS'Remember'
p4601
aS'triggered'
p4602
aS'January'
p4603
aS'South African'
p4604
aS'1970s energy crisis'
p4605
aS'scrutiny'
p4606
aS'reclaims'
p4607
aS'Armenian earthquake'
p4608
aS'hurricanes'
p4609
aS'resisted'
p4610
aS'ongoing crisis'
p4611
aS'capturing'
p4612
aS'deliberations'
p4613
aS'undefeated'
p4614
aS'Vittoria'
p4615
aS'South Africa'
p4616
aS'census'
p4617
aS'Christmas season'
p4618
aS'incidents'
p4619
aS'defending'
p4620
aS'Emancipation Proclamation'
p4621
aS'Republican Party'
p4622
aS'cited'
p4623
aS'Soviet national'
p4624
aS'Armenians'
p4625
aS'defeated'
p4626
aS'October 1987 stock market crash'
p4627
aS'crusade'
p4628
aS'dropped'
p4629
aS'National Day'
p4630
aS'Christmas'
p4631
aS'advancing'
p4632
aS'disappear'
p4633
aS'season'
p4634
aS'Cuban government'
p4635
aS'confronting'
p4636
aS'February'
p4637
aS'Cuban Revolution'
p4638
aS'defeat'
p4639
aS'yesterday'
p4640
aS'II'
p4641
aS'The elections'
p4642
aS'fell'
p4643
aS'Expo'
p4644
aS'successive'
p4645
aS'seasons'
p4646
aS'GOP'
p4647
aS'infamous'
p4648
aS'younger'
p4649
aS'World War II'
p4650
aS'eclipsing'
p4651
aS'Series'
p4652
aS'counted'
p4653
aS'Second'
p4654
aS'restored'
p4655
aS'Miss America'
p4656
aS'wreckage'
p4657
aS'Tiananmen Square'
p4658
aS'Fifth'
p4659
aS'World Series'
p4660
as.